
game:     file format elf32-i386


Disassembly of section .text:

00800000 <sulp>:
  800000:	55                   	push   %ebp
  800001:	89 e5                	mov    %esp,%ebp
  800003:	53                   	push   %ebx
  800004:	89 cb                	mov    %ecx,%ebx
  800006:	83 ec 14             	sub    $0x14,%esp
  800009:	89 45 f0             	mov    %eax,-0x10(%ebp)
  80000c:	89 55 f4             	mov    %edx,-0xc(%ebp)
  80000f:	dd 45 f0             	fldl   -0x10(%ebp)
  800012:	dd 1c 24             	fstpl  (%esp)
  800015:	e8 b6 ad 03 00       	call   83add0 <__ulp>
  80001a:	85 db                	test   %ebx,%ebx
  80001c:	74 2c                	je     80004a <sulp+0x4a>
  80001e:	8b 55 f4             	mov    -0xc(%ebp),%edx
  800021:	b8 6b 00 00 00       	mov    $0x6b,%eax
  800026:	81 e2 00 00 f0 7f    	and    $0x7ff00000,%edx
  80002c:	c1 ea 14             	shr    $0x14,%edx
  80002f:	29 d0                	sub    %edx,%eax
  800031:	85 c0                	test   %eax,%eax
  800033:	7e 15                	jle    80004a <sulp+0x4a>
  800035:	c1 e0 14             	shl    $0x14,%eax
  800038:	05 00 00 f0 3f       	add    $0x3ff00000,%eax
  80003d:	89 45 f4             	mov    %eax,-0xc(%ebp)
  800040:	c7 45 f0 00 00 00 00 	movl   $0x0,-0x10(%ebp)
  800047:	dc 4d f0             	fmull  -0x10(%ebp)
  80004a:	83 c4 14             	add    $0x14,%esp
  80004d:	5b                   	pop    %ebx
  80004e:	5d                   	pop    %ebp
  80004f:	c3                   	ret    

00800050 <syscall>:
  800050:	55                   	push   %ebp
  800051:	89 e5                	mov    %esp,%ebp
  800053:	53                   	push   %ebx
  800054:	83 ec 10             	sub    $0x10,%esp
  800057:	e8 b7 01 00 00       	call   800213 <__x86.get_pc_thunk.ax>
  80005c:	05 a4 bf 04 00       	add    $0x4bfa4,%eax
  800061:	8d 45 08             	lea    0x8(%ebp),%eax
  800064:	89 45 f8             	mov    %eax,-0x8(%ebp)
  800067:	8b 45 f8             	mov    -0x8(%ebp),%eax
  80006a:	8b 00                	mov    (%eax),%eax
  80006c:	8b 55 f8             	mov    -0x8(%ebp),%edx
  80006f:	83 c2 04             	add    $0x4,%edx
  800072:	8b 1a                	mov    (%edx),%ebx
  800074:	8b 55 f8             	mov    -0x8(%ebp),%edx
  800077:	83 c2 08             	add    $0x8,%edx
  80007a:	8b 0a                	mov    (%edx),%ecx
  80007c:	8b 55 f8             	mov    -0x8(%ebp),%edx
  80007f:	83 c2 0c             	add    $0xc,%edx
  800082:	8b 12                	mov    (%edx),%edx
  800084:	cd 80                	int    $0x80
  800086:	89 45 f4             	mov    %eax,-0xc(%ebp)
  800089:	8b 45 f4             	mov    -0xc(%ebp),%eax
  80008c:	83 c4 10             	add    $0x10,%esp
  80008f:	5b                   	pop    %ebx
  800090:	5d                   	pop    %ebp
  800091:	c3                   	ret    

00800092 <_exit>:
  800092:	55                   	push   %ebp
  800093:	89 e5                	mov    %esp,%ebp
  800095:	53                   	push   %ebx
  800096:	83 ec 04             	sub    $0x4,%esp
  800099:	e8 75 01 00 00       	call   800213 <__x86.get_pc_thunk.ax>
  80009e:	05 62 bf 04 00       	add    $0x4bf62,%eax
  8000a3:	8d 90 44 60 ff ff    	lea    -0x9fbc(%eax),%edx
  8000a9:	52                   	push   %edx
  8000aa:	6a 12                	push   $0x12
  8000ac:	8d 90 00 60 ff ff    	lea    -0xa000(%eax),%edx
  8000b2:	52                   	push   %edx
  8000b3:	8d 90 1c 60 ff ff    	lea    -0x9fe4(%eax),%edx
  8000b9:	52                   	push   %edx
  8000ba:	89 c3                	mov    %eax,%ebx
  8000bc:	e8 ef 22 03 00       	call   8323b0 <printf>
  8000c1:	83 c4 10             	add    $0x10,%esp
  8000c4:	83 7d 08 00          	cmpl   $0x0,0x8(%ebp)
  8000c8:	74 06                	je     8000d0 <_exit+0x3e>
  8000ca:	b8 01 00 00 00       	mov    $0x1,%eax
  8000cf:	82 90 8b 5d fc c9 c3 	adcb   $0xc3,-0x3603a275(%eax)

008000d6 <open>:
  8000d6:	55                   	push   %ebp
  8000d7:	89 e5                	mov    %esp,%ebp
  8000d9:	e8 35 01 00 00       	call   800213 <__x86.get_pc_thunk.ax>
  8000de:	05 22 bf 04 00       	add    $0x4bf22,%eax
  8000e3:	ff 75 0c             	pushl  0xc(%ebp)
  8000e6:	ff 75 08             	pushl  0x8(%ebp)
  8000e9:	6a 05                	push   $0x5
  8000eb:	e8 60 ff ff ff       	call   800050 <syscall>
  8000f0:	83 c4 0c             	add    $0xc,%esp
  8000f3:	c9                   	leave  
  8000f4:	c3                   	ret    

008000f5 <read>:
  8000f5:	55                   	push   %ebp
  8000f6:	89 e5                	mov    %esp,%ebp
  8000f8:	e8 16 01 00 00       	call   800213 <__x86.get_pc_thunk.ax>
  8000fd:	05 03 bf 04 00       	add    $0x4bf03,%eax
  800102:	ff 75 10             	pushl  0x10(%ebp)
  800105:	ff 75 0c             	pushl  0xc(%ebp)
  800108:	ff 75 08             	pushl  0x8(%ebp)
  80010b:	6a 03                	push   $0x3
  80010d:	e8 3e ff ff ff       	call   800050 <syscall>
  800112:	83 c4 10             	add    $0x10,%esp
  800115:	c9                   	leave  
  800116:	c3                   	ret    

00800117 <write>:
  800117:	55                   	push   %ebp
  800118:	89 e5                	mov    %esp,%ebp
  80011a:	e8 f4 00 00 00       	call   800213 <__x86.get_pc_thunk.ax>
  80011f:	05 e1 be 04 00       	add    $0x4bee1,%eax
  800124:	ff 75 10             	pushl  0x10(%ebp)
  800127:	ff 75 0c             	pushl  0xc(%ebp)
  80012a:	ff 75 08             	pushl  0x8(%ebp)
  80012d:	6a 04                	push   $0x4
  80012f:	e8 1c ff ff ff       	call   800050 <syscall>
  800134:	83 c4 10             	add    $0x10,%esp
  800137:	c9                   	leave  
  800138:	c3                   	ret    

00800139 <lseek>:
  800139:	55                   	push   %ebp
  80013a:	89 e5                	mov    %esp,%ebp
  80013c:	e8 d2 00 00 00       	call   800213 <__x86.get_pc_thunk.ax>
  800141:	05 bf be 04 00       	add    $0x4bebf,%eax
  800146:	ff 75 10             	pushl  0x10(%ebp)
  800149:	ff 75 0c             	pushl  0xc(%ebp)
  80014c:	ff 75 08             	pushl  0x8(%ebp)
  80014f:	6a 13                	push   $0x13
  800151:	e8 fa fe ff ff       	call   800050 <syscall>
  800156:	83 c4 10             	add    $0x10,%esp
  800159:	c9                   	leave  
  80015a:	c3                   	ret    

0080015b <sbrk>:
  80015b:	55                   	push   %ebp
  80015c:	89 e5                	mov    %esp,%ebp
  80015e:	53                   	push   %ebx
  80015f:	83 ec 10             	sub    $0x10,%esp
  800162:	e8 b0 00 00 00       	call   800217 <__x86.get_pc_thunk.bx>
  800167:	81 c3 99 be 04 00    	add    $0x4be99,%ebx
  80016d:	8b 83 a0 15 00 00    	mov    0x15a0(%ebx),%eax
  800173:	85 c0                	test   %eax,%eax
  800175:	75 0c                	jne    800183 <sbrk+0x28>
  800177:	c7 c0 08 4a 86 00    	mov    $0x864a08,%eax
  80017d:	89 83 a0 15 00 00    	mov    %eax,0x15a0(%ebx)
  800183:	8b 93 a0 15 00 00    	mov    0x15a0(%ebx),%edx
  800189:	8b 45 08             	mov    0x8(%ebp),%eax
  80018c:	01 d0                	add    %edx,%eax
  80018e:	50                   	push   %eax
  80018f:	6a 2d                	push   $0x2d
  800191:	e8 ba fe ff ff       	call   800050 <syscall>
  800196:	83 c4 08             	add    $0x8,%esp
  800199:	85 c0                	test   %eax,%eax
  80019b:	74 06                	je     8001a3 <sbrk+0x48>
  80019d:	b8 01 00 00 00       	mov    $0x1,%eax
  8001a2:	82 8b 83 a0 15 00 00 	orb    $0x0,0x15a083(%ebx)
  8001a9:	89 45 f8             	mov    %eax,-0x8(%ebp)
  8001ac:	8b 93 a0 15 00 00    	mov    0x15a0(%ebx),%edx
  8001b2:	8b 45 08             	mov    0x8(%ebp),%eax
  8001b5:	01 d0                	add    %edx,%eax
  8001b7:	89 83 a0 15 00 00    	mov    %eax,0x15a0(%ebx)
  8001bd:	8b 45 f8             	mov    -0x8(%ebp),%eax
  8001c0:	8b 5d fc             	mov    -0x4(%ebp),%ebx
  8001c3:	c9                   	leave  
  8001c4:	c3                   	ret    

008001c5 <close>:
  8001c5:	55                   	push   %ebp
  8001c6:	89 e5                	mov    %esp,%ebp
  8001c8:	e8 46 00 00 00       	call   800213 <__x86.get_pc_thunk.ax>
  8001cd:	05 33 be 04 00       	add    $0x4be33,%eax
  8001d2:	ff 75 08             	pushl  0x8(%ebp)
  8001d5:	6a 06                	push   $0x6
  8001d7:	e8 74 fe ff ff       	call   800050 <syscall>
  8001dc:	83 c4 08             	add    $0x8,%esp
  8001df:	c9                   	leave  
  8001e0:	c3                   	ret    

008001e1 <fstat>:
  8001e1:	55                   	push   %ebp
  8001e2:	89 e5                	mov    %esp,%ebp
  8001e4:	e8 2a 00 00 00       	call   800213 <__x86.get_pc_thunk.ax>
  8001e9:	05 17 be 04 00       	add    $0x4be17,%eax
  8001ee:	8b 45 0c             	mov    0xc(%ebp),%eax
  8001f1:	c7 40 04 00 20 00 00 	movl   $0x2000,0x4(%eax)
  8001f8:	b8 00 00 00 00       	mov    $0x0,%eax
  8001fd:	5d                   	pop    %ebp
  8001fe:	c3                   	ret    

008001ff <isatty>:
  8001ff:	55                   	push   %ebp
  800200:	89 e5                	mov    %esp,%ebp
  800202:	e8 0c 00 00 00       	call   800213 <__x86.get_pc_thunk.ax>
  800207:	05 f9 bd 04 00       	add    $0x4bdf9,%eax
  80020c:	b8 00 00 00 00       	mov    $0x0,%eax
  800211:	5d                   	pop    %ebp
  800212:	c3                   	ret    

00800213 <__x86.get_pc_thunk.ax>:
  800213:	8b 04 24             	mov    (%esp),%eax
  800216:	c3                   	ret    

00800217 <__x86.get_pc_thunk.bx>:
  800217:	8b 1c 24             	mov    (%esp),%ebx
  80021a:	c3                   	ret    

0080021b <cli>:
  80021b:	55                   	push   %ebp
  80021c:	89 e5                	mov    %esp,%ebp
  80021e:	e8 f0 ff ff ff       	call   800213 <__x86.get_pc_thunk.ax>
  800223:	05 dd bd 04 00       	add    $0x4bddd,%eax
  800228:	fa                   	cli    
  800229:	90                   	nop
  80022a:	5d                   	pop    %ebp
  80022b:	c3                   	ret    

0080022c <add_irq_handle>:
  80022c:	55                   	push   %ebp
  80022d:	89 e5                	mov    %esp,%ebp
  80022f:	53                   	push   %ebx
  800230:	83 ec 04             	sub    $0x4,%esp
  800233:	e8 db ff ff ff       	call   800213 <__x86.get_pc_thunk.ax>
  800238:	05 c8 bd 04 00       	add    $0x4bdc8,%eax
  80023d:	83 ec 04             	sub    $0x4,%esp
  800240:	ff 75 0c             	pushl  0xc(%ebp)
  800243:	ff 75 08             	pushl  0x8(%ebp)
  800246:	6a 00                	push   $0x0
  800248:	89 c3                	mov    %eax,%ebx
  80024a:	e8 01 fe ff ff       	call   800050 <syscall>
  80024f:	83 c4 10             	add    $0x10,%esp
  800252:	90                   	nop
  800253:	8b 5d fc             	mov    -0x4(%ebp),%ebx
  800256:	c9                   	leave  
  800257:	c3                   	ret    

00800258 <game_init>:
  800258:	55                   	push   %ebp
  800259:	89 e5                	mov    %esp,%ebp
  80025b:	53                   	push   %ebx
  80025c:	83 ec 04             	sub    $0x4,%esp
  80025f:	e8 b3 ff ff ff       	call   800217 <__x86.get_pc_thunk.bx>
  800264:	81 c3 9c bd 04 00    	add    $0x4bd9c,%ebx
  80026a:	e8 c2 00 00 00       	call   800331 <init_timer>
  80026f:	83 ec 08             	sub    $0x8,%esp
  800272:	c7 c0 a3 60 81 00    	mov    $0x8160a3,%eax
  800278:	50                   	push   %eax
  800279:	6a 00                	push   $0x0
  80027b:	e8 ac ff ff ff       	call   80022c <add_irq_handle>
  800280:	83 c4 10             	add    $0x10,%esp
  800283:	83 ec 08             	sub    $0x8,%esp
  800286:	c7 c0 91 6c 81 00    	mov    $0x816c91,%eax
  80028c:	50                   	push   %eax
  80028d:	6a 01                	push   $0x1
  80028f:	e8 98 ff ff ff       	call   80022c <add_irq_handle>
  800294:	83 c4 10             	add    $0x10,%esp
  800297:	8d 83 d4 60 ff ff    	lea    -0x9f2c(%ebx),%eax
  80029d:	50                   	push   %eax
  80029e:	6a 13                	push   $0x13
  8002a0:	8d 83 4c 60 ff ff    	lea    -0x9fb4(%ebx),%eax
  8002a6:	50                   	push   %eax
  8002a7:	8d 83 60 60 ff ff    	lea    -0x9fa0(%ebx),%eax
  8002ad:	50                   	push   %eax
  8002ae:	e8 fd 20 03 00       	call   8323b0 <printf>
  8002b3:	83 c4 10             	add    $0x10,%esp
  8002b6:	e8 da 15 01 00       	call   811895 <main_loop>
  8002bb:	e8 5b ff ff ff       	call   80021b <cli>
  8002c0:	83 ec 0c             	sub    $0xc,%esp
  8002c3:	8d 83 8a 60 ff ff    	lea    -0x9f76(%ebx),%eax
  8002c9:	50                   	push   %eax
  8002ca:	8d 83 d4 60 ff ff    	lea    -0x9f2c(%ebx),%eax
  8002d0:	50                   	push   %eax
  8002d1:	6a 17                	push   $0x17
  8002d3:	8d 83 4c 60 ff ff    	lea    -0x9fb4(%ebx),%eax
  8002d9:	50                   	push   %eax
  8002da:	8d 83 8c 60 ff ff    	lea    -0x9f74(%ebx),%eax
  8002e0:	50                   	push   %eax
  8002e1:	e8 ca 20 03 00       	call   8323b0 <printf>
  8002e6:	83 c4 20             	add    $0x20,%esp
  8002e9:	b8 01 00 00 00       	mov    $0x1,%eax
  8002ee:	82 90 8b 5d fc c9 c3 	adcb   $0xc3,-0x3603a275(%eax)

008002f5 <out_byte>:
  8002f5:	55                   	push   %ebp
  8002f6:	89 e5                	mov    %esp,%ebp
  8002f8:	83 ec 08             	sub    $0x8,%esp
  8002fb:	e8 13 ff ff ff       	call   800213 <__x86.get_pc_thunk.ax>
  800300:	05 00 bd 04 00       	add    $0x4bd00,%eax
  800305:	8b 45 08             	mov    0x8(%ebp),%eax
  800308:	8b 55 0c             	mov    0xc(%ebp),%edx
  80030b:	66 89 45 fc          	mov    %ax,-0x4(%ebp)
  80030f:	89 d0                	mov    %edx,%eax
  800311:	88 45 f8             	mov    %al,-0x8(%ebp)
  800314:	0f b6 45 f8          	movzbl -0x8(%ebp),%eax
  800318:	0f b7 55 fc          	movzwl -0x4(%ebp),%edx
  80031c:	ee                   	out    %al,(%dx)
  80031d:	90                   	nop
  80031e:	c9                   	leave  
  80031f:	c3                   	ret    

00800320 <cli>:
  800320:	55                   	push   %ebp
  800321:	89 e5                	mov    %esp,%ebp
  800323:	e8 eb fe ff ff       	call   800213 <__x86.get_pc_thunk.ax>
  800328:	05 d8 bc 04 00       	add    $0x4bcd8,%eax
  80032d:	fa                   	cli    
  80032e:	90                   	nop
  80032f:	5d                   	pop    %ebp
  800330:	c3                   	ret    

00800331 <init_timer>:
  800331:	55                   	push   %ebp
  800332:	89 e5                	mov    %esp,%ebp
  800334:	53                   	push   %ebx
  800335:	83 ec 14             	sub    $0x14,%esp
  800338:	e8 da fe ff ff       	call   800217 <__x86.get_pc_thunk.bx>
  80033d:	81 c3 c3 bc 04 00    	add    $0x4bcc3,%ebx
  800343:	c7 45 f4 9b 2e 00 00 	movl   $0x2e9b,-0xc(%ebp)
  80034a:	81 7d f4 ff ff 00 00 	cmpl   $0xffff,-0xc(%ebp)
  800351:	7e 34                	jle    800387 <init_timer+0x56>
  800353:	e8 c8 ff ff ff       	call   800320 <cli>
  800358:	83 ec 0c             	sub    $0xc,%esp
  80035b:	8d 83 e0 60 ff ff    	lea    -0x9f20(%ebx),%eax
  800361:	50                   	push   %eax
  800362:	8d 83 54 61 ff ff    	lea    -0x9eac(%ebx),%eax
  800368:	50                   	push   %eax
  800369:	6a 09                	push   $0x9
  80036b:	8d 83 f0 60 ff ff    	lea    -0x9f10(%ebx),%eax
  800371:	50                   	push   %eax
  800372:	8d 83 0c 61 ff ff    	lea    -0x9ef4(%ebx),%eax
  800378:	50                   	push   %eax
  800379:	e8 32 20 03 00       	call   8323b0 <printf>
  80037e:	83 c4 20             	add    $0x20,%esp
  800381:	b8 01 00 00 00       	mov    $0x1,%eax
  800386:	82 83 ec 08 6a 34 6a 	addb   $0x6a,0x346a08ec(%ebx)
  80038d:	43                   	inc    %ebx
  80038e:	e8 62 ff ff ff       	call   8002f5 <out_byte>
  800393:	83 c4 10             	add    $0x10,%esp
  800396:	8b 45 f4             	mov    -0xc(%ebp),%eax
  800399:	99                   	cltd   
  80039a:	c1 ea 18             	shr    $0x18,%edx
  80039d:	01 d0                	add    %edx,%eax
  80039f:	0f b6 c0             	movzbl %al,%eax
  8003a2:	29 d0                	sub    %edx,%eax
  8003a4:	0f be c0             	movsbl %al,%eax
  8003a7:	83 ec 08             	sub    $0x8,%esp
  8003aa:	50                   	push   %eax
  8003ab:	6a 40                	push   $0x40
  8003ad:	e8 43 ff ff ff       	call   8002f5 <out_byte>
  8003b2:	83 c4 10             	add    $0x10,%esp
  8003b5:	8b 45 f4             	mov    -0xc(%ebp),%eax
  8003b8:	8d 90 ff 00 00 00    	lea    0xff(%eax),%edx
  8003be:	85 c0                	test   %eax,%eax
  8003c0:	0f 48 c2             	cmovs  %edx,%eax
  8003c3:	c1 f8 08             	sar    $0x8,%eax
  8003c6:	0f be c0             	movsbl %al,%eax
  8003c9:	83 ec 08             	sub    $0x8,%esp
  8003cc:	50                   	push   %eax
  8003cd:	6a 40                	push   $0x40
  8003cf:	e8 21 ff ff ff       	call   8002f5 <out_byte>
  8003d4:	83 c4 10             	add    $0x10,%esp
  8003d7:	90                   	nop
  8003d8:	8b 5d fc             	mov    -0x4(%ebp),%ebx
  8003db:	c9                   	leave  
  8003dc:	c3                   	ret    

008003dd <in_byte>:
  8003dd:	55                   	push   %ebp
  8003de:	89 e5                	mov    %esp,%ebp
  8003e0:	83 ec 14             	sub    $0x14,%esp
  8003e3:	e8 2b fe ff ff       	call   800213 <__x86.get_pc_thunk.ax>
  8003e8:	05 18 bc 04 00       	add    $0x4bc18,%eax
  8003ed:	8b 45 08             	mov    0x8(%ebp),%eax
  8003f0:	66 89 45 ec          	mov    %ax,-0x14(%ebp)
  8003f4:	0f b7 45 ec          	movzwl -0x14(%ebp),%eax
  8003f8:	89 c2                	mov    %eax,%edx
  8003fa:	ec                   	in     (%dx),%al
  8003fb:	88 45 ff             	mov    %al,-0x1(%ebp)
  8003fe:	0f b6 45 ff          	movzbl -0x1(%ebp),%eax
  800402:	c9                   	leave  
  800403:	c3                   	ret    

00800404 <out_byte>:
  800404:	55                   	push   %ebp
  800405:	89 e5                	mov    %esp,%ebp
  800407:	83 ec 08             	sub    $0x8,%esp
  80040a:	e8 04 fe ff ff       	call   800213 <__x86.get_pc_thunk.ax>
  80040f:	05 f1 bb 04 00       	add    $0x4bbf1,%eax
  800414:	8b 45 08             	mov    0x8(%ebp),%eax
  800417:	8b 55 0c             	mov    0xc(%ebp),%edx
  80041a:	66 89 45 fc          	mov    %ax,-0x4(%ebp)
  80041e:	89 d0                	mov    %edx,%eax
  800420:	88 45 f8             	mov    %al,-0x8(%ebp)
  800423:	0f b6 45 f8          	movzbl -0x8(%ebp),%eax
  800427:	0f b7 55 fc          	movzwl -0x4(%ebp),%edx
  80042b:	ee                   	out    %al,(%dx)
  80042c:	90                   	nop
  80042d:	c9                   	leave  
  80042e:	c3                   	ret    

0080042f <write_palette>:
  80042f:	55                   	push   %ebp
  800430:	89 e5                	mov    %esp,%ebp
  800432:	83 ec 10             	sub    $0x10,%esp
  800435:	e8 d9 fd ff ff       	call   800213 <__x86.get_pc_thunk.ax>
  80043a:	05 c6 bb 04 00       	add    $0x4bbc6,%eax
  80043f:	8b 45 08             	mov    0x8(%ebp),%eax
  800442:	89 45 f8             	mov    %eax,-0x8(%ebp)
  800445:	6a 00                	push   $0x0
  800447:	68 c8 03 00 00       	push   $0x3c8
  80044c:	e8 b3 ff ff ff       	call   800404 <out_byte>
  800451:	83 c4 08             	add    $0x8,%esp
  800454:	c7 45 fc 00 00 00 00 	movl   $0x0,-0x4(%ebp)
  80045b:	eb 78                	jmp    8004d5 <write_palette+0xa6>
  80045d:	8b 45 fc             	mov    -0x4(%ebp),%eax
  800460:	8d 14 85 00 00 00 00 	lea    0x0(,%eax,4),%edx
  800467:	8b 45 f8             	mov    -0x8(%ebp),%eax
  80046a:	01 d0                	add    %edx,%eax
  80046c:	0f b6 00             	movzbl (%eax),%eax
  80046f:	c0 e8 02             	shr    $0x2,%al
  800472:	0f be c0             	movsbl %al,%eax
  800475:	50                   	push   %eax
  800476:	68 c9 03 00 00       	push   $0x3c9
  80047b:	e8 84 ff ff ff       	call   800404 <out_byte>
  800480:	83 c4 08             	add    $0x8,%esp
  800483:	8b 45 fc             	mov    -0x4(%ebp),%eax
  800486:	8d 14 85 00 00 00 00 	lea    0x0(,%eax,4),%edx
  80048d:	8b 45 f8             	mov    -0x8(%ebp),%eax
  800490:	01 d0                	add    %edx,%eax
  800492:	0f b6 40 01          	movzbl 0x1(%eax),%eax
  800496:	c0 e8 02             	shr    $0x2,%al
  800499:	0f be c0             	movsbl %al,%eax
  80049c:	50                   	push   %eax
  80049d:	68 c9 03 00 00       	push   $0x3c9
  8004a2:	e8 5d ff ff ff       	call   800404 <out_byte>
  8004a7:	83 c4 08             	add    $0x8,%esp
  8004aa:	8b 45 fc             	mov    -0x4(%ebp),%eax
  8004ad:	8d 14 85 00 00 00 00 	lea    0x0(,%eax,4),%edx
  8004b4:	8b 45 f8             	mov    -0x8(%ebp),%eax
  8004b7:	01 d0                	add    %edx,%eax
  8004b9:	0f b6 40 02          	movzbl 0x2(%eax),%eax
  8004bd:	c0 e8 02             	shr    $0x2,%al
  8004c0:	0f be c0             	movsbl %al,%eax
  8004c3:	50                   	push   %eax
  8004c4:	68 c9 03 00 00       	push   $0x3c9
  8004c9:	e8 36 ff ff ff       	call   800404 <out_byte>
  8004ce:	83 c4 08             	add    $0x8,%esp
  8004d1:	83 45 fc 01          	addl   $0x1,-0x4(%ebp)
  8004d5:	8b 45 fc             	mov    -0x4(%ebp),%eax
  8004d8:	3b 45 0c             	cmp    0xc(%ebp),%eax
  8004db:	7c 80                	jl     80045d <write_palette+0x2e>
  8004dd:	90                   	nop
  8004de:	c9                   	leave  
  8004df:	c3                   	ret    

008004e0 <read_palette>:
  8004e0:	55                   	push   %ebp
  8004e1:	89 e5                	mov    %esp,%ebp
  8004e3:	53                   	push   %ebx
  8004e4:	83 ec 14             	sub    $0x14,%esp
  8004e7:	e8 2b fd ff ff       	call   800217 <__x86.get_pc_thunk.bx>
  8004ec:	81 c3 14 bb 04 00    	add    $0x4bb14,%ebx
  8004f2:	6a 00                	push   $0x0
  8004f4:	68 c7 03 00 00       	push   $0x3c7
  8004f9:	e8 06 ff ff ff       	call   800404 <out_byte>
  8004fe:	83 c4 08             	add    $0x8,%esp
  800501:	c7 45 f4 00 00 00 00 	movl   $0x0,-0xc(%ebp)
  800508:	eb 52                	jmp    80055c <read_palette+0x7c>
  80050a:	68 c9 03 00 00       	push   $0x3c9
  80050f:	e8 c9 fe ff ff       	call   8003dd <in_byte>
  800514:	83 c4 04             	add    $0x4,%esp
  800517:	88 45 f3             	mov    %al,-0xd(%ebp)
  80051a:	68 c9 03 00 00       	push   $0x3c9
  80051f:	e8 b9 fe ff ff       	call   8003dd <in_byte>
  800524:	83 c4 04             	add    $0x4,%esp
  800527:	88 45 f2             	mov    %al,-0xe(%ebp)
  80052a:	68 c9 03 00 00       	push   $0x3c9
  80052f:	e8 a9 fe ff ff       	call   8003dd <in_byte>
  800534:	83 c4 04             	add    $0x4,%esp
  800537:	88 45 f1             	mov    %al,-0xf(%ebp)
  80053a:	0f b6 4d f1          	movzbl -0xf(%ebp),%ecx
  80053e:	0f b6 55 f2          	movzbl -0xe(%ebp),%edx
  800542:	0f b6 45 f3          	movzbl -0xd(%ebp),%eax
  800546:	51                   	push   %ecx
  800547:	52                   	push   %edx
  800548:	50                   	push   %eax
  800549:	8d 83 5f 61 ff ff    	lea    -0x9ea1(%ebx),%eax
  80054f:	50                   	push   %eax
  800550:	e8 5b 1e 03 00       	call   8323b0 <printf>
  800555:	83 c4 10             	add    $0x10,%esp
  800558:	83 45 f4 01          	addl   $0x1,-0xc(%ebp)
  80055c:	81 7d f4 ff 00 00 00 	cmpl   $0xff,-0xc(%ebp)
  800563:	7e a5                	jle    80050a <read_palette+0x2a>
  800565:	90                   	nop
  800566:	8b 5d fc             	mov    -0x4(%ebp),%ebx
  800569:	c9                   	leave  
  80056a:	c3                   	ret    

0080056b <cli>:
  80056b:	55                   	push   %ebp
  80056c:	89 e5                	mov    %esp,%ebp
  80056e:	e8 a0 fc ff ff       	call   800213 <__x86.get_pc_thunk.ax>
  800573:	05 8d ba 04 00       	add    $0x4ba8d,%eax
  800578:	fa                   	cli    
  800579:	90                   	nop
  80057a:	5d                   	pop    %ebp
  80057b:	c3                   	ret    

0080057c <draw_pixel>:
  80057c:	55                   	push   %ebp
  80057d:	89 e5                	mov    %esp,%ebp
  80057f:	53                   	push   %ebx
  800580:	83 ec 04             	sub    $0x4,%esp
  800583:	e8 8f fc ff ff       	call   800217 <__x86.get_pc_thunk.bx>
  800588:	81 c3 78 ba 04 00    	add    $0x4ba78,%ebx
  80058e:	83 7d 08 00          	cmpl   $0x0,0x8(%ebp)
  800592:	78 18                	js     8005ac <draw_pixel+0x30>
  800594:	83 7d 0c 00          	cmpl   $0x0,0xc(%ebp)
  800598:	78 12                	js     8005ac <draw_pixel+0x30>
  80059a:	81 7d 08 c7 00 00 00 	cmpl   $0xc7,0x8(%ebp)
  8005a1:	7f 09                	jg     8005ac <draw_pixel+0x30>
  8005a3:	81 7d 0c 3f 01 00 00 	cmpl   $0x13f,0xc(%ebp)
  8005aa:	7e 34                	jle    8005e0 <draw_pixel+0x64>
  8005ac:	e8 ba ff ff ff       	call   80056b <cli>
  8005b1:	83 ec 0c             	sub    $0xc,%esp
  8005b4:	8d 83 78 61 ff ff    	lea    -0x9e88(%ebx),%eax
  8005ba:	50                   	push   %eax
  8005bb:	8d 83 4c 62 ff ff    	lea    -0x9db4(%ebx),%eax
  8005c1:	50                   	push   %eax
  8005c2:	6a 10                	push   $0x10
  8005c4:	8d 83 ac 61 ff ff    	lea    -0x9e54(%ebx),%eax
  8005ca:	50                   	push   %eax
  8005cb:	8d 83 c8 61 ff ff    	lea    -0x9e38(%ebx),%eax
  8005d1:	50                   	push   %eax
  8005d2:	e8 d9 1d 03 00       	call   8323b0 <printf>
  8005d7:	83 c4 20             	add    $0x20,%esp
  8005da:	b8 01 00 00 00       	mov    $0x1,%eax
  8005df:	82 8b 83 20 04 00 00 	orb    $0x0,0x42083(%ebx)
  8005e6:	8b 55 08             	mov    0x8(%ebp),%edx
  8005e9:	89 d1                	mov    %edx,%ecx
  8005eb:	c1 e1 08             	shl    $0x8,%ecx
  8005ee:	8b 55 08             	mov    0x8(%ebp),%edx
  8005f1:	c1 e2 06             	shl    $0x6,%edx
  8005f4:	01 d1                	add    %edx,%ecx
  8005f6:	8b 55 0c             	mov    0xc(%ebp),%edx
  8005f9:	01 ca                	add    %ecx,%edx
  8005fb:	01 d0                	add    %edx,%eax
  8005fd:	8b 55 10             	mov    0x10(%ebp),%edx
  800600:	88 10                	mov    %dl,(%eax)
  800602:	90                   	nop
  800603:	8b 5d fc             	mov    -0x4(%ebp),%ebx
  800606:	c9                   	leave  
  800607:	c3                   	ret    

00800608 <prepare_buffer>:
  800608:	55                   	push   %ebp
  800609:	89 e5                	mov    %esp,%ebp
  80060b:	53                   	push   %ebx
  80060c:	83 ec 04             	sub    $0x4,%esp
  80060f:	e8 ff fb ff ff       	call   800213 <__x86.get_pc_thunk.ax>
  800614:	05 ec b9 04 00       	add    $0x4b9ec,%eax
  800619:	8b 90 20 04 00 00    	mov    0x420(%eax),%edx
  80061f:	83 ec 04             	sub    $0x4,%esp
  800622:	68 00 fa 00 00       	push   $0xfa00
  800627:	6a 00                	push   $0x0
  800629:	52                   	push   %edx
  80062a:	89 c3                	mov    %eax,%ebx
  80062c:	e8 4c 1c 03 00       	call   83227d <memset>
  800631:	83 c4 10             	add    $0x10,%esp
  800634:	90                   	nop
  800635:	8b 5d fc             	mov    -0x4(%ebp),%ebx
  800638:	c9                   	leave  
  800639:	c3                   	ret    

0080063a <display_buffer>:
  80063a:	55                   	push   %ebp
  80063b:	89 e5                	mov    %esp,%ebp
  80063d:	57                   	push   %edi
  80063e:	56                   	push   %esi
  80063f:	53                   	push   %ebx
  800640:	e8 ce fb ff ff       	call   800213 <__x86.get_pc_thunk.ax>
  800645:	05 bb b9 04 00       	add    $0x4b9bb,%eax
  80064a:	8b 80 20 04 00 00    	mov    0x420(%eax),%eax
  800650:	ba 80 3e 00 00       	mov    $0x3e80,%edx
  800655:	bb 00 00 0a 00       	mov    $0xa0000,%ebx
  80065a:	89 d1                	mov    %edx,%ecx
  80065c:	89 c6                	mov    %eax,%esi
  80065e:	89 df                	mov    %ebx,%edi
  800660:	fc                   	cld    
  800661:	f3 a5                	rep movsl %ds:(%esi),%es:(%edi)
  800663:	90                   	nop
  800664:	5b                   	pop    %ebx
  800665:	5e                   	pop    %esi
  800666:	5f                   	pop    %edi
  800667:	5d                   	pop    %ebp
  800668:	c3                   	ret    

00800669 <draw_character>:
  800669:	55                   	push   %ebp
  80066a:	89 e5                	mov    %esp,%ebp
  80066c:	53                   	push   %ebx
  80066d:	83 ec 24             	sub    $0x24,%esp
  800670:	e8 a2 fb ff ff       	call   800217 <__x86.get_pc_thunk.bx>
  800675:	81 c3 8b b9 04 00    	add    $0x4b98b,%ebx
  80067b:	8b 45 08             	mov    0x8(%ebp),%eax
  80067e:	88 45 e4             	mov    %al,-0x1c(%ebp)
  800681:	80 7d e4 00          	cmpb   $0x0,-0x1c(%ebp)
  800685:	79 34                	jns    8006bb <draw_character+0x52>
  800687:	e8 df fe ff ff       	call   80056b <cli>
  80068c:	83 ec 0c             	sub    $0xc,%esp
  80068f:	8d 83 10 62 ff ff    	lea    -0x9df0(%ebx),%eax
  800695:	50                   	push   %eax
  800696:	8d 83 3c 62 ff ff    	lea    -0x9dc4(%ebx),%eax
  80069c:	50                   	push   %eax
  80069d:	6a 1a                	push   $0x1a
  80069f:	8d 83 21 62 ff ff    	lea    -0x9ddf(%ebx),%eax
  8006a5:	50                   	push   %eax
  8006a6:	8d 83 c8 61 ff ff    	lea    -0x9e38(%ebx),%eax
  8006ac:	50                   	push   %eax
  8006ad:	e8 fe 1c 03 00       	call   8323b0 <printf>
  8006b2:	83 c4 20             	add    $0x20,%esp
  8006b5:	b8 01 00 00 00       	mov    $0x1,%eax
  8006ba:	82 0f be             	orb    $0xbe,(%edi)
  8006bd:	45                   	inc    %ebp
  8006be:	e4 8d                	in     $0x8d,%al
  8006c0:	14 c5                	adc    $0xc5,%al
  8006c2:	00 00                	add    %al,(%eax)
  8006c4:	00 00                	add    %al,(%eax)
  8006c6:	c7 c0 20 c0 84 00    	mov    $0x84c020,%eax
  8006cc:	01 d0                	add    %edx,%eax
  8006ce:	89 45 ec             	mov    %eax,-0x14(%ebp)
  8006d1:	c7 45 f4 00 00 00 00 	movl   $0x0,-0xc(%ebp)
  8006d8:	eb 55                	jmp    80072f <draw_character+0xc6>
  8006da:	c7 45 f0 00 00 00 00 	movl   $0x0,-0x10(%ebp)
  8006e1:	eb 42                	jmp    800725 <draw_character+0xbc>
  8006e3:	8b 55 f4             	mov    -0xc(%ebp),%edx
  8006e6:	8b 45 ec             	mov    -0x14(%ebp),%eax
  8006e9:	01 d0                	add    %edx,%eax
  8006eb:	0f b6 00             	movzbl (%eax),%eax
  8006ee:	0f be d0             	movsbl %al,%edx
  8006f1:	8b 45 f0             	mov    -0x10(%ebp),%eax
  8006f4:	89 c1                	mov    %eax,%ecx
  8006f6:	d3 fa                	sar    %cl,%edx
  8006f8:	89 d0                	mov    %edx,%eax
  8006fa:	83 e0 01             	and    $0x1,%eax
  8006fd:	85 c0                	test   %eax,%eax
  8006ff:	74 20                	je     800721 <draw_character+0xb8>
  800701:	8b 55 10             	mov    0x10(%ebp),%edx
  800704:	8b 45 f0             	mov    -0x10(%ebp),%eax
  800707:	01 c2                	add    %eax,%edx
  800709:	8b 4d 0c             	mov    0xc(%ebp),%ecx
  80070c:	8b 45 f4             	mov    -0xc(%ebp),%eax
  80070f:	01 c8                	add    %ecx,%eax
  800711:	83 ec 04             	sub    $0x4,%esp
  800714:	ff 75 14             	pushl  0x14(%ebp)
  800717:	52                   	push   %edx
  800718:	50                   	push   %eax
  800719:	e8 5e fe ff ff       	call   80057c <draw_pixel>
  80071e:	83 c4 10             	add    $0x10,%esp
  800721:	83 45 f0 01          	addl   $0x1,-0x10(%ebp)
  800725:	83 7d f0 07          	cmpl   $0x7,-0x10(%ebp)
  800729:	7e b8                	jle    8006e3 <draw_character+0x7a>
  80072b:	83 45 f4 01          	addl   $0x1,-0xc(%ebp)
  80072f:	83 7d f4 07          	cmpl   $0x7,-0xc(%ebp)
  800733:	7e a5                	jle    8006da <draw_character+0x71>
  800735:	90                   	nop
  800736:	8b 5d fc             	mov    -0x4(%ebp),%ebx
  800739:	c9                   	leave  
  80073a:	c3                   	ret    

0080073b <draw_string>:
  80073b:	55                   	push   %ebp
  80073c:	89 e5                	mov    %esp,%ebp
  80073e:	83 ec 08             	sub    $0x8,%esp
  800741:	e8 cd fa ff ff       	call   800213 <__x86.get_pc_thunk.ax>
  800746:	05 ba b8 04 00       	add    $0x4b8ba,%eax
  80074b:	eb 3b                	jmp    800788 <draw_string+0x4d>
  80074d:	8b 45 08             	mov    0x8(%ebp),%eax
  800750:	8d 50 01             	lea    0x1(%eax),%edx
  800753:	89 55 08             	mov    %edx,0x8(%ebp)
  800756:	0f b6 00             	movzbl (%eax),%eax
  800759:	0f be c0             	movsbl %al,%eax
  80075c:	ff 75 14             	pushl  0x14(%ebp)
  80075f:	ff 75 10             	pushl  0x10(%ebp)
  800762:	ff 75 0c             	pushl  0xc(%ebp)
  800765:	50                   	push   %eax
  800766:	e8 fe fe ff ff       	call   800669 <draw_character>
  80076b:	83 c4 10             	add    $0x10,%esp
  80076e:	81 7d 10 37 01 00 00 	cmpl   $0x137,0x10(%ebp)
  800775:	7e 0d                	jle    800784 <draw_string+0x49>
  800777:	83 45 0c 08          	addl   $0x8,0xc(%ebp)
  80077b:	c7 45 10 00 00 00 00 	movl   $0x0,0x10(%ebp)
  800782:	eb 04                	jmp    800788 <draw_string+0x4d>
  800784:	83 45 10 08          	addl   $0x8,0x10(%ebp)
  800788:	8b 45 08             	mov    0x8(%ebp),%eax
  80078b:	0f b6 00             	movzbl (%eax),%eax
  80078e:	84 c0                	test   %al,%al
  800790:	75 bb                	jne    80074d <draw_string+0x12>
  800792:	90                   	nop
  800793:	c9                   	leave  
  800794:	c3                   	ret    

00800795 <out_longbyte>:
  800795:	55                   	push   %ebp
  800796:	89 e5                	mov    %esp,%ebp
  800798:	83 ec 04             	sub    $0x4,%esp
  80079b:	e8 73 fa ff ff       	call   800213 <__x86.get_pc_thunk.ax>
  8007a0:	05 60 b8 04 00       	add    $0x4b860,%eax
  8007a5:	8b 45 08             	mov    0x8(%ebp),%eax
  8007a8:	66 89 45 fc          	mov    %ax,-0x4(%ebp)
  8007ac:	8b 45 0c             	mov    0xc(%ebp),%eax
  8007af:	0f b7 55 fc          	movzwl -0x4(%ebp),%edx
  8007b3:	ef                   	out    %eax,(%dx)
  8007b4:	90                   	nop
  8007b5:	c9                   	leave  
  8007b6:	c3                   	ret    

008007b7 <audio_pause>:
  8007b7:	55                   	push   %ebp
  8007b8:	89 e5                	mov    %esp,%ebp
  8007ba:	e8 54 fa ff ff       	call   800213 <__x86.get_pc_thunk.ax>
  8007bf:	05 41 b8 04 00       	add    $0x4b841,%eax
  8007c4:	ff 75 08             	pushl  0x8(%ebp)
  8007c7:	68 c1 00 00 00       	push   $0xc1
  8007cc:	e8 c4 ff ff ff       	call   800795 <out_longbyte>
  8007d1:	83 c4 08             	add    $0x8,%esp
  8007d4:	90                   	nop
  8007d5:	c9                   	leave  
  8007d6:	c3                   	ret    

008007d7 <audio_write>:
  8007d7:	55                   	push   %ebp
  8007d8:	89 e5                	mov    %esp,%ebp
  8007da:	e8 34 fa ff ff       	call   800213 <__x86.get_pc_thunk.ax>
  8007df:	05 21 b8 04 00       	add    $0x4b821,%eax
  8007e4:	8b 45 08             	mov    0x8(%ebp),%eax
  8007e7:	50                   	push   %eax
  8007e8:	68 c0 00 00 00       	push   $0xc0
  8007ed:	e8 a3 ff ff ff       	call   800795 <out_longbyte>
  8007f2:	83 c4 08             	add    $0x8,%esp
  8007f5:	90                   	nop
  8007f6:	c9                   	leave  
  8007f7:	c3                   	ret    

008007f8 <cli>:
  8007f8:	55                   	push   %ebp
  8007f9:	89 e5                	mov    %esp,%ebp
  8007fb:	e8 13 fa ff ff       	call   800213 <__x86.get_pc_thunk.ax>
  800800:	05 00 b8 04 00       	add    $0x4b800,%eax
  800805:	fa                   	cli    
  800806:	90                   	nop
  800807:	5d                   	pop    %ebp
  800808:	c3                   	ret    

00800809 <f2u>:
  800809:	55                   	push   %ebp
  80080a:	89 e5                	mov    %esp,%ebp
  80080c:	83 ec 10             	sub    $0x10,%esp
  80080f:	e8 ff f9 ff ff       	call   800213 <__x86.get_pc_thunk.ax>
  800814:	05 ec b7 04 00       	add    $0x4b7ec,%eax
  800819:	8d 45 08             	lea    0x8(%ebp),%eax
  80081c:	89 45 fc             	mov    %eax,-0x4(%ebp)
  80081f:	8b 45 fc             	mov    -0x4(%ebp),%eax
  800822:	8b 00                	mov    (%eax),%eax
  800824:	c9                   	leave  
  800825:	c3                   	ret    

00800826 <pow>:
  800826:	55                   	push   %ebp
  800827:	89 e5                	mov    %esp,%ebp
  800829:	53                   	push   %ebx
  80082a:	83 ec 14             	sub    $0x14,%esp
  80082d:	e8 e5 f9 ff ff       	call   800217 <__x86.get_pc_thunk.bx>
  800832:	81 c3 ce b7 04 00    	add    $0x4b7ce,%ebx
  800838:	d9 83 c4 64 ff ff    	flds   -0x9b3c(%ebx)
  80083e:	d9 5d f4             	fstps  -0xc(%ebp)
  800841:	d9 45 f4             	flds   -0xc(%ebp)
  800844:	d9 5d f0             	fstps  -0x10(%ebp)
  800847:	d9 45 f0             	flds   -0x10(%ebp)
  80084a:	d8 4d f0             	fmuls  -0x10(%ebp)
  80084d:	d9 5d ec             	fstps  -0x14(%ebp)
  800850:	d9 45 08             	flds   0x8(%ebp)
  800853:	d8 75 ec             	fdivs  -0x14(%ebp)
  800856:	d8 65 f0             	fsubs  -0x10(%ebp)
  800859:	d9 83 c8 64 ff ff    	flds   -0x9b38(%ebx)
  80085f:	de f9                	fdivrp %st,%st(1)
  800861:	d9 5d e8             	fstps  -0x18(%ebp)
  800864:	d9 45 f0             	flds   -0x10(%ebp)
  800867:	d8 45 e8             	fadds  -0x18(%ebp)
  80086a:	d9 5d f4             	fstps  -0xc(%ebp)
  80086d:	ff 75 e8             	pushl  -0x18(%ebp)
  800870:	e8 94 ff ff ff       	call   800809 <f2u>
  800875:	83 c4 04             	add    $0x4,%esp
  800878:	85 c0                	test   %eax,%eax
  80087a:	79 07                	jns    800883 <pow+0x5d>
  80087c:	d9 45 e8             	flds   -0x18(%ebp)
  80087f:	d9 e0                	fchs   
  800881:	eb 03                	jmp    800886 <pow+0x60>
  800883:	d9 45 e8             	flds   -0x18(%ebp)
  800886:	dd 83 d0 64 ff ff    	fldl   -0x9b30(%ebx)
  80088c:	d9 c9                	fxch   %st(1)
  80088e:	df f1                	fcomip %st(1),%st
  800890:	dd d8                	fstp   %st(0)
  800892:	77 ad                	ja     800841 <pow+0x1b>
  800894:	d9 45 f4             	flds   -0xc(%ebp)
  800897:	8b 5d fc             	mov    -0x4(%ebp),%ebx
  80089a:	c9                   	leave  
  80089b:	c3                   	ret    

0080089c <PAL_IsPlayerDying>:
  80089c:	55                   	push   %ebp
  80089d:	89 e5                	mov    %esp,%ebp
  80089f:	83 ec 04             	sub    $0x4,%esp
  8008a2:	e8 6c f9 ff ff       	call   800213 <__x86.get_pc_thunk.ax>
  8008a7:	05 59 b7 04 00       	add    $0x4b759,%eax
  8008ac:	8b 55 08             	mov    0x8(%ebp),%edx
  8008af:	66 89 55 fc          	mov    %dx,-0x4(%ebp)
  8008b3:	c7 c2 98 41 86 00    	mov    $0x864198,%edx
  8008b9:	8b 12                	mov    (%edx),%edx
  8008bb:	0f b7 4d fc          	movzwl -0x4(%ebp),%ecx
  8008bf:	81 c1 10 13 00 00    	add    $0x1310,%ecx
  8008c5:	0f b7 54 4a 14       	movzwl 0x14(%edx,%ecx,2),%edx
  8008ca:	c7 c0 98 41 86 00    	mov    $0x864198,%eax
  8008d0:	8b 00                	mov    (%eax),%eax
  8008d2:	0f b7 4d fc          	movzwl -0x4(%ebp),%ecx
  8008d6:	81 c1 08 13 00 00    	add    $0x1308,%ecx
  8008dc:	0f b7 44 48 0c       	movzwl 0xc(%eax,%ecx,2),%eax
  8008e1:	0f b7 c0             	movzwl %ax,%eax
  8008e4:	69 c0 cd cc 00 00    	imul   $0xcccd,%eax,%eax
  8008ea:	c1 e8 10             	shr    $0x10,%eax
  8008ed:	66 c1 e8 02          	shr    $0x2,%ax
  8008f1:	66 39 c2             	cmp    %ax,%dx
  8008f4:	0f 92 c0             	setb   %al
  8008f7:	0f b6 c0             	movzbl %al,%eax
  8008fa:	c9                   	leave  
  8008fb:	c3                   	ret    

008008fc <PAL_BattleSelectAutoTarget>:
  8008fc:	55                   	push   %ebp
  8008fd:	89 e5                	mov    %esp,%ebp
  8008ff:	83 ec 10             	sub    $0x10,%esp
  800902:	e8 0c f9 ff ff       	call   800213 <__x86.get_pc_thunk.ax>
  800907:	05 f9 b6 04 00       	add    $0x4b6f9,%eax
  80090c:	c7 c2 e0 41 86 00    	mov    $0x8641e0,%edx
  800912:	0f b7 92 f8 06 00 00 	movzwl 0x6f8(%edx),%edx
  800919:	0f b7 d2             	movzwl %dx,%edx
  80091c:	89 55 fc             	mov    %edx,-0x4(%ebp)
  80091f:	83 7d fc 00          	cmpl   $0x0,-0x4(%ebp)
  800923:	78 58                	js     80097d <PAL_BattleSelectAutoTarget+0x81>
  800925:	c7 c2 e0 41 86 00    	mov    $0x8641e0,%edx
  80092b:	0f b7 92 b0 04 00 00 	movzwl 0x4b0(%edx),%edx
  800932:	0f b7 d2             	movzwl %dx,%edx
  800935:	39 55 fc             	cmp    %edx,-0x4(%ebp)
  800938:	7f 43                	jg     80097d <PAL_BattleSelectAutoTarget+0x81>
  80093a:	c7 c1 e0 41 86 00    	mov    $0x8641e0,%ecx
  800940:	8b 55 fc             	mov    -0x4(%ebp),%edx
  800943:	69 d2 cc 00 00 00    	imul   $0xcc,%edx,%edx
  800949:	01 ca                	add    %ecx,%edx
  80094b:	81 c2 b4 00 00 00    	add    $0xb4,%edx
  800951:	0f b7 12             	movzwl (%edx),%edx
  800954:	66 85 d2             	test   %dx,%dx
  800957:	74 24                	je     80097d <PAL_BattleSelectAutoTarget+0x81>
  800959:	c7 c1 e0 41 86 00    	mov    $0x8641e0,%ecx
  80095f:	8b 55 fc             	mov    -0x4(%ebp),%edx
  800962:	69 d2 cc 00 00 00    	imul   $0xcc,%edx,%edx
  800968:	01 ca                	add    %ecx,%edx
  80096a:	81 c2 cc 00 00 00    	add    $0xcc,%edx
  800970:	0f b7 12             	movzwl (%edx),%edx
  800973:	66 85 d2             	test   %dx,%dx
  800976:	74 05                	je     80097d <PAL_BattleSelectAutoTarget+0x81>
  800978:	8b 45 fc             	mov    -0x4(%ebp),%eax
  80097b:	eb 6a                	jmp    8009e7 <PAL_BattleSelectAutoTarget+0xeb>
  80097d:	c7 45 fc 00 00 00 00 	movl   $0x0,-0x4(%ebp)
  800984:	eb 47                	jmp    8009cd <PAL_BattleSelectAutoTarget+0xd1>
  800986:	c7 c1 e0 41 86 00    	mov    $0x8641e0,%ecx
  80098c:	8b 55 fc             	mov    -0x4(%ebp),%edx
  80098f:	69 d2 cc 00 00 00    	imul   $0xcc,%edx,%edx
  800995:	01 ca                	add    %ecx,%edx
  800997:	81 c2 b4 00 00 00    	add    $0xb4,%edx
  80099d:	0f b7 12             	movzwl (%edx),%edx
  8009a0:	66 85 d2             	test   %dx,%dx
  8009a3:	74 24                	je     8009c9 <PAL_BattleSelectAutoTarget+0xcd>
  8009a5:	c7 c1 e0 41 86 00    	mov    $0x8641e0,%ecx
  8009ab:	8b 55 fc             	mov    -0x4(%ebp),%edx
  8009ae:	69 d2 cc 00 00 00    	imul   $0xcc,%edx,%edx
  8009b4:	01 ca                	add    %ecx,%edx
  8009b6:	81 c2 cc 00 00 00    	add    $0xcc,%edx
  8009bc:	0f b7 12             	movzwl (%edx),%edx
  8009bf:	66 85 d2             	test   %dx,%dx
  8009c2:	74 05                	je     8009c9 <PAL_BattleSelectAutoTarget+0xcd>
  8009c4:	8b 45 fc             	mov    -0x4(%ebp),%eax
  8009c7:	eb 1e                	jmp    8009e7 <PAL_BattleSelectAutoTarget+0xeb>
  8009c9:	83 45 fc 01          	addl   $0x1,-0x4(%ebp)
  8009cd:	c7 c2 e0 41 86 00    	mov    $0x8641e0,%edx
  8009d3:	0f b7 92 b0 04 00 00 	movzwl 0x4b0(%edx),%edx
  8009da:	0f b7 d2             	movzwl %dx,%edx
  8009dd:	39 55 fc             	cmp    %edx,-0x4(%ebp)
  8009e0:	7e a4                	jle    800986 <PAL_BattleSelectAutoTarget+0x8a>
  8009e2:	b8 ff ff ff ff       	mov    $0xffffffff,%eax
  8009e7:	c9                   	leave  
  8009e8:	c3                   	ret    

008009e9 <PAL_CalcBaseDamage>:
  8009e9:	55                   	push   %ebp
  8009ea:	89 e5                	mov    %esp,%ebp
  8009ec:	83 ec 20             	sub    $0x20,%esp
  8009ef:	e8 1f f8 ff ff       	call   800213 <__x86.get_pc_thunk.ax>
  8009f4:	05 0c b6 04 00       	add    $0x4b60c,%eax
  8009f9:	8b 4d 08             	mov    0x8(%ebp),%ecx
  8009fc:	8b 55 0c             	mov    0xc(%ebp),%edx
  8009ff:	66 89 4d ec          	mov    %cx,-0x14(%ebp)
  800a03:	66 89 55 e8          	mov    %dx,-0x18(%ebp)
  800a07:	0f b7 55 ec          	movzwl -0x14(%ebp),%edx
  800a0b:	66 3b 55 e8          	cmp    -0x18(%ebp),%dx
  800a0f:	76 41                	jbe    800a52 <PAL_CalcBaseDamage+0x69>
  800a11:	0f b7 55 ec          	movzwl -0x14(%ebp),%edx
  800a15:	01 d2                	add    %edx,%edx
  800a17:	89 55 e4             	mov    %edx,-0x1c(%ebp)
  800a1a:	db 45 e4             	fildl  -0x1c(%ebp)
  800a1d:	0f b7 55 e8          	movzwl -0x18(%ebp),%edx
  800a21:	89 55 e4             	mov    %edx,-0x1c(%ebp)
  800a24:	db 45 e4             	fildl  -0x1c(%ebp)
  800a27:	dd 80 d8 64 ff ff    	fldl   -0x9b28(%eax)
  800a2d:	de c9                	fmulp  %st,%st(1)
  800a2f:	de e9                	fsubrp %st,%st(1)
  800a31:	dd 80 e0 64 ff ff    	fldl   -0x9b20(%eax)
  800a37:	de c1                	faddp  %st,%st(1)
  800a39:	d9 7d ea             	fnstcw -0x16(%ebp)
  800a3c:	0f b7 45 ea          	movzwl -0x16(%ebp),%eax
  800a40:	80 cc 0c             	or     $0xc,%ah
  800a43:	66 89 45 ee          	mov    %ax,-0x12(%ebp)
  800a47:	d9 6d ee             	fldcw  -0x12(%ebp)
  800a4a:	df 5d fe             	fistps -0x2(%ebp)
  800a4d:	d9 6d ea             	fldcw  -0x16(%ebp)
  800a50:	eb 69                	jmp    800abb <PAL_CalcBaseDamage+0xd2>
  800a52:	0f b7 55 ec          	movzwl -0x14(%ebp),%edx
  800a56:	89 55 e4             	mov    %edx,-0x1c(%ebp)
  800a59:	db 45 e4             	fildl  -0x1c(%ebp)
  800a5c:	0f b7 55 e8          	movzwl -0x18(%ebp),%edx
  800a60:	89 55 e4             	mov    %edx,-0x1c(%ebp)
  800a63:	db 45 e4             	fildl  -0x1c(%ebp)
  800a66:	dd 80 e8 64 ff ff    	fldl   -0x9b18(%eax)
  800a6c:	de c9                	fmulp  %st,%st(1)
  800a6e:	d9 c9                	fxch   %st(1)
  800a70:	df f1                	fcomip %st(1),%st
  800a72:	dd d8                	fstp   %st(0)
  800a74:	76 3f                	jbe    800ab5 <PAL_CalcBaseDamage+0xcc>
  800a76:	0f b7 55 ec          	movzwl -0x14(%ebp),%edx
  800a7a:	89 55 e4             	mov    %edx,-0x1c(%ebp)
  800a7d:	db 45 e4             	fildl  -0x1c(%ebp)
  800a80:	0f b7 55 e8          	movzwl -0x18(%ebp),%edx
  800a84:	89 55 e4             	mov    %edx,-0x1c(%ebp)
  800a87:	db 45 e4             	fildl  -0x1c(%ebp)
  800a8a:	dd 80 e8 64 ff ff    	fldl   -0x9b18(%eax)
  800a90:	de c9                	fmulp  %st,%st(1)
  800a92:	de e9                	fsubrp %st,%st(1)
  800a94:	dd 80 e0 64 ff ff    	fldl   -0x9b20(%eax)
  800a9a:	de c1                	faddp  %st,%st(1)
  800a9c:	d9 7d ea             	fnstcw -0x16(%ebp)
  800a9f:	0f b7 45 ea          	movzwl -0x16(%ebp),%eax
  800aa3:	80 cc 0c             	or     $0xc,%ah
  800aa6:	66 89 45 ee          	mov    %ax,-0x12(%ebp)
  800aaa:	d9 6d ee             	fldcw  -0x12(%ebp)
  800aad:	df 5d fe             	fistps -0x2(%ebp)
  800ab0:	d9 6d ea             	fldcw  -0x16(%ebp)
  800ab3:	eb 06                	jmp    800abb <PAL_CalcBaseDamage+0xd2>
  800ab5:	66 c7 45 fe 00 00    	movw   $0x0,-0x2(%ebp)
  800abb:	0f b7 45 fe          	movzwl -0x2(%ebp),%eax
  800abf:	c9                   	leave  
  800ac0:	c3                   	ret    

00800ac1 <PAL_CalcMagicDamage>:
  800ac1:	55                   	push   %ebp
  800ac2:	89 e5                	mov    %esp,%ebp
  800ac4:	56                   	push   %esi
  800ac5:	53                   	push   %ebx
  800ac6:	83 ec 30             	sub    $0x30,%esp
  800ac9:	e8 49 f7 ff ff       	call   800217 <__x86.get_pc_thunk.bx>
  800ace:	81 c3 32 b5 04 00    	add    $0x4b532,%ebx
  800ad4:	8b 75 08             	mov    0x8(%ebp),%esi
  800ad7:	8b 4d 0c             	mov    0xc(%ebp),%ecx
  800ada:	8b 55 14             	mov    0x14(%ebp),%edx
  800add:	8b 45 18             	mov    0x18(%ebp),%eax
  800ae0:	66 89 75 e4          	mov    %si,-0x1c(%ebp)
  800ae4:	66 89 4d e0          	mov    %cx,-0x20(%ebp)
  800ae8:	66 89 55 dc          	mov    %dx,-0x24(%ebp)
  800aec:	66 89 45 d8          	mov    %ax,-0x28(%ebp)
  800af0:	c7 c0 98 41 86 00    	mov    $0x864198,%eax
  800af6:	8b 08                	mov    (%eax),%ecx
  800af8:	0f b7 55 d8          	movzwl -0x28(%ebp),%edx
  800afc:	89 d0                	mov    %edx,%eax
  800afe:	01 c0                	add    %eax,%eax
  800b00:	01 d0                	add    %edx,%eax
  800b02:	c1 e0 02             	shl    $0x2,%eax
  800b05:	01 c8                	add    %ecx,%eax
  800b07:	05 88 09 00 00       	add    $0x988,%eax
  800b0c:	0f b7 00             	movzwl (%eax),%eax
  800b0f:	66 89 45 d8          	mov    %ax,-0x28(%ebp)
  800b13:	83 ec 08             	sub    $0x8,%esp
  800b16:	d9 83 f0 64 ff ff    	flds   -0x9b10(%ebx)
  800b1c:	8d 64 24 fc          	lea    -0x4(%esp),%esp
  800b20:	d9 1c 24             	fstps  (%esp)
  800b23:	d9 83 f4 64 ff ff    	flds   -0x9b0c(%ebx)
  800b29:	8d 64 24 fc          	lea    -0x4(%esp),%esp
  800b2d:	d9 1c 24             	fstps  (%esp)
  800b30:	e8 57 1c 01 00       	call   81278c <RandomFloat>
  800b35:	83 c4 10             	add    $0x10,%esp
  800b38:	0f b7 45 e4          	movzwl -0x1c(%ebp),%eax
  800b3c:	89 45 d0             	mov    %eax,-0x30(%ebp)
  800b3f:	db 45 d0             	fildl  -0x30(%ebp)
  800b42:	de c9                	fmulp  %st,%st(1)
  800b44:	d9 7d da             	fnstcw -0x26(%ebp)
  800b47:	0f b7 45 da          	movzwl -0x26(%ebp),%eax
  800b4b:	80 cc 0c             	or     $0xc,%ah
  800b4e:	66 89 45 de          	mov    %ax,-0x22(%ebp)
  800b52:	d9 6d de             	fldcw  -0x22(%ebp)
  800b55:	db 5d d4             	fistpl -0x2c(%ebp)
  800b58:	d9 6d da             	fldcw  -0x26(%ebp)
  800b5b:	8b 45 d4             	mov    -0x2c(%ebp),%eax
  800b5e:	66 89 45 e4          	mov    %ax,-0x1c(%ebp)
  800b62:	0f b7 45 e4          	movzwl -0x1c(%ebp),%eax
  800b66:	0f b7 c0             	movzwl %ax,%eax
  800b69:	69 c0 cd cc 00 00    	imul   $0xcccd,%eax,%eax
  800b6f:	c1 e8 10             	shr    $0x10,%eax
  800b72:	66 c1 e8 03          	shr    $0x3,%ax
  800b76:	66 89 45 e4          	mov    %ax,-0x1c(%ebp)
  800b7a:	0f b7 55 e0          	movzwl -0x20(%ebp),%edx
  800b7e:	0f b7 45 e4          	movzwl -0x1c(%ebp),%eax
  800b82:	83 ec 08             	sub    $0x8,%esp
  800b85:	52                   	push   %edx
  800b86:	50                   	push   %eax
  800b87:	e8 5d fe ff ff       	call   8009e9 <PAL_CalcBaseDamage>
  800b8c:	83 c4 10             	add    $0x10,%esp
  800b8f:	66 89 45 f6          	mov    %ax,-0xa(%ebp)
  800b93:	0f b7 45 f6          	movzwl -0xa(%ebp),%eax
  800b97:	8d 50 03             	lea    0x3(%eax),%edx
  800b9a:	66 85 c0             	test   %ax,%ax
  800b9d:	0f 48 c2             	cmovs  %edx,%eax
  800ba0:	66 c1 f8 02          	sar    $0x2,%ax
  800ba4:	66 89 45 f6          	mov    %ax,-0xa(%ebp)
  800ba8:	c7 c0 98 41 86 00    	mov    $0x864198,%eax
  800bae:	8b 00                	mov    (%eax),%eax
  800bb0:	8b 80 4c 29 00 00    	mov    0x294c(%eax),%eax
  800bb6:	0f b7 55 d8          	movzwl -0x28(%ebp),%edx
  800bba:	c1 e2 05             	shl    $0x5,%edx
  800bbd:	01 d0                	add    %edx,%eax
  800bbf:	0f b7 50 1a          	movzwl 0x1a(%eax),%edx
  800bc3:	0f b7 45 f6          	movzwl -0xa(%ebp),%eax
  800bc7:	01 d0                	add    %edx,%eax
  800bc9:	66 89 45 f6          	mov    %ax,-0xa(%ebp)
  800bcd:	c7 c0 98 41 86 00    	mov    $0x864198,%eax
  800bd3:	8b 00                	mov    (%eax),%eax
  800bd5:	8b 80 4c 29 00 00    	mov    0x294c(%eax),%eax
  800bdb:	0f b7 55 d8          	movzwl -0x28(%ebp),%edx
  800bdf:	c1 e2 05             	shl    $0x5,%edx
  800be2:	01 d0                	add    %edx,%eax
  800be4:	0f b7 40 1c          	movzwl 0x1c(%eax),%eax
  800be8:	66 85 c0             	test   %ax,%ax
  800beb:	0f 84 15 01 00 00    	je     800d06 <PAL_CalcMagicDamage+0x245>
  800bf1:	c7 c0 98 41 86 00    	mov    $0x864198,%eax
  800bf7:	8b 00                	mov    (%eax),%eax
  800bf9:	8b 80 4c 29 00 00    	mov    0x294c(%eax),%eax
  800bff:	0f b7 55 d8          	movzwl -0x28(%ebp),%edx
  800c03:	c1 e2 05             	shl    $0x5,%edx
  800c06:	01 d0                	add    %edx,%eax
  800c08:	0f b7 40 1c          	movzwl 0x1c(%eax),%eax
  800c0c:	66 89 45 f4          	mov    %ax,-0xc(%ebp)
  800c10:	66 83 7d f4 05       	cmpw   $0x5,-0xc(%ebp)
  800c15:	76 1c                	jbe    800c33 <PAL_CalcMagicDamage+0x172>
  800c17:	0f b7 45 dc          	movzwl -0x24(%ebp),%eax
  800c1b:	ba 0a 00 00 00       	mov    $0xa,%edx
  800c20:	29 c2                	sub    %eax,%edx
  800c22:	89 d0                	mov    %edx,%eax
  800c24:	89 c2                	mov    %eax,%edx
  800c26:	0f b7 45 f6          	movzwl -0xa(%ebp),%eax
  800c2a:	0f af c2             	imul   %edx,%eax
  800c2d:	66 89 45 f6          	mov    %ax,-0xa(%ebp)
  800c31:	eb 45                	jmp    800c78 <PAL_CalcMagicDamage+0x1b7>
  800c33:	66 83 7d f4 00       	cmpw   $0x0,-0xc(%ebp)
  800c38:	75 11                	jne    800c4b <PAL_CalcMagicDamage+0x18a>
  800c3a:	0f b7 55 f6          	movzwl -0xa(%ebp),%edx
  800c3e:	89 d0                	mov    %edx,%eax
  800c40:	c1 e0 02             	shl    $0x2,%eax
  800c43:	01 d0                	add    %edx,%eax
  800c45:	66 89 45 f6          	mov    %ax,-0xa(%ebp)
  800c49:	eb 2d                	jmp    800c78 <PAL_CalcMagicDamage+0x1b7>
  800c4b:	0f b7 45 f4          	movzwl -0xc(%ebp),%eax
  800c4f:	05 ff ff ff 7f       	add    $0x7fffffff,%eax
  800c54:	8d 14 00             	lea    (%eax,%eax,1),%edx
  800c57:	8b 45 10             	mov    0x10(%ebp),%eax
  800c5a:	01 d0                	add    %edx,%eax
  800c5c:	0f b7 00             	movzwl (%eax),%eax
  800c5f:	0f b7 c0             	movzwl %ax,%eax
  800c62:	ba 0a 00 00 00       	mov    $0xa,%edx
  800c67:	29 c2                	sub    %eax,%edx
  800c69:	89 d0                	mov    %edx,%eax
  800c6b:	89 c2                	mov    %eax,%edx
  800c6d:	0f b7 45 f6          	movzwl -0xa(%ebp),%eax
  800c71:	0f af c2             	imul   %edx,%eax
  800c74:	66 89 45 f6          	mov    %ax,-0xa(%ebp)
  800c78:	0f b7 45 f6          	movzwl -0xa(%ebp),%eax
  800c7c:	0f bf d0             	movswl %ax,%edx
  800c7f:	69 d2 67 66 00 00    	imul   $0x6667,%edx,%edx
  800c85:	c1 ea 10             	shr    $0x10,%edx
  800c88:	66 d1 fa             	sar    %dx
  800c8b:	66 c1 f8 0f          	sar    $0xf,%ax
  800c8f:	29 c2                	sub    %eax,%edx
  800c91:	89 d0                	mov    %edx,%eax
  800c93:	66 89 45 f6          	mov    %ax,-0xa(%ebp)
  800c97:	66 83 7d f4 05       	cmpw   $0x5,-0xc(%ebp)
  800c9c:	77 68                	ja     800d06 <PAL_CalcMagicDamage+0x245>
  800c9e:	c7 c0 98 41 86 00    	mov    $0x864198,%eax
  800ca4:	8b 00                	mov    (%eax),%eax
  800ca6:	8b 88 54 29 00 00    	mov    0x2954(%eax),%ecx
  800cac:	c7 c0 98 41 86 00    	mov    $0x864198,%eax
  800cb2:	8b 00                	mov    (%eax),%eax
  800cb4:	0f b7 80 58 44 00 00 	movzwl 0x4458(%eax),%eax
  800cbb:	0f b7 d0             	movzwl %ax,%edx
  800cbe:	89 d0                	mov    %edx,%eax
  800cc0:	01 c0                	add    %eax,%eax
  800cc2:	01 d0                	add    %edx,%eax
  800cc4:	c1 e0 02             	shl    $0x2,%eax
  800cc7:	01 c8                	add    %ecx,%eax
  800cc9:	0f b7 55 f4          	movzwl -0xc(%ebp),%edx
  800ccd:	83 ea 01             	sub    $0x1,%edx
  800cd0:	0f b7 44 50 02       	movzwl 0x2(%eax,%edx,2),%eax
  800cd5:	98                   	cwtl   
  800cd6:	83 c0 0a             	add    $0xa,%eax
  800cd9:	89 c2                	mov    %eax,%edx
  800cdb:	0f b7 45 f6          	movzwl -0xa(%ebp),%eax
  800cdf:	0f af c2             	imul   %edx,%eax
  800ce2:	66 89 45 f6          	mov    %ax,-0xa(%ebp)
  800ce6:	0f b7 45 f6          	movzwl -0xa(%ebp),%eax
  800cea:	0f bf d0             	movswl %ax,%edx
  800ced:	69 d2 67 66 00 00    	imul   $0x6667,%edx,%edx
  800cf3:	c1 ea 10             	shr    $0x10,%edx
  800cf6:	66 c1 fa 02          	sar    $0x2,%dx
  800cfa:	66 c1 f8 0f          	sar    $0xf,%ax
  800cfe:	29 c2                	sub    %eax,%edx
  800d00:	89 d0                	mov    %edx,%eax
  800d02:	66 89 45 f6          	mov    %ax,-0xa(%ebp)
  800d06:	0f b7 45 f6          	movzwl -0xa(%ebp),%eax
  800d0a:	8d 65 f8             	lea    -0x8(%ebp),%esp
  800d0d:	5b                   	pop    %ebx
  800d0e:	5e                   	pop    %esi
  800d0f:	5d                   	pop    %ebp
  800d10:	c3                   	ret    

00800d11 <PAL_CalcPhysicalAttackDamage>:
  800d11:	55                   	push   %ebp
  800d12:	89 e5                	mov    %esp,%ebp
  800d14:	83 ec 20             	sub    $0x20,%esp
  800d17:	e8 f7 f4 ff ff       	call   800213 <__x86.get_pc_thunk.ax>
  800d1c:	05 e4 b2 04 00       	add    $0x4b2e4,%eax
  800d21:	8b 4d 08             	mov    0x8(%ebp),%ecx
  800d24:	8b 55 0c             	mov    0xc(%ebp),%edx
  800d27:	8b 45 10             	mov    0x10(%ebp),%eax
  800d2a:	66 89 4d ec          	mov    %cx,-0x14(%ebp)
  800d2e:	66 89 55 e8          	mov    %dx,-0x18(%ebp)
  800d32:	66 89 45 e4          	mov    %ax,-0x1c(%ebp)
  800d36:	0f b7 55 e8          	movzwl -0x18(%ebp),%edx
  800d3a:	0f b7 45 ec          	movzwl -0x14(%ebp),%eax
  800d3e:	52                   	push   %edx
  800d3f:	50                   	push   %eax
  800d40:	e8 a4 fc ff ff       	call   8009e9 <PAL_CalcBaseDamage>
  800d45:	83 c4 08             	add    $0x8,%esp
  800d48:	66 89 45 fe          	mov    %ax,-0x2(%ebp)
  800d4c:	66 83 7d e4 00       	cmpw   $0x0,-0x1c(%ebp)
  800d51:	74 0f                	je     800d62 <PAL_CalcPhysicalAttackDamage+0x51>
  800d53:	0f bf 45 fe          	movswl -0x2(%ebp),%eax
  800d57:	0f b7 4d e4          	movzwl -0x1c(%ebp),%ecx
  800d5b:	99                   	cltd   
  800d5c:	f7 f9                	idiv   %ecx
  800d5e:	66 89 45 fe          	mov    %ax,-0x2(%ebp)
  800d62:	0f b7 45 fe          	movzwl -0x2(%ebp),%eax
  800d66:	c9                   	leave  
  800d67:	c3                   	ret    

00800d68 <PAL_GetEnemyDexterity>:
  800d68:	55                   	push   %ebp
  800d69:	89 e5                	mov    %esp,%ebp
  800d6b:	53                   	push   %ebx
  800d6c:	83 ec 24             	sub    $0x24,%esp
  800d6f:	e8 a3 f4 ff ff       	call   800217 <__x86.get_pc_thunk.bx>
  800d74:	81 c3 8c b2 04 00    	add    $0x4b28c,%ebx
  800d7a:	8b 45 08             	mov    0x8(%ebp),%eax
  800d7d:	66 89 45 e4          	mov    %ax,-0x1c(%ebp)
  800d81:	0f b7 45 e4          	movzwl -0x1c(%ebp),%eax
  800d85:	c7 c2 e0 41 86 00    	mov    $0x8641e0,%edx
  800d8b:	69 c0 cc 00 00 00    	imul   $0xcc,%eax,%eax
  800d91:	01 d0                	add    %edx,%eax
  800d93:	05 b4 00 00 00       	add    $0xb4,%eax
  800d98:	0f b7 00             	movzwl (%eax),%eax
  800d9b:	66 85 c0             	test   %ax,%ax
  800d9e:	75 37                	jne    800dd7 <PAL_GetEnemyDexterity+0x6f>
  800da0:	e8 53 fa ff ff       	call   8007f8 <cli>
  800da5:	83 ec 0c             	sub    $0xc,%esp
  800da8:	8d 83 60 62 ff ff    	lea    -0x9da0(%ebx),%eax
  800dae:	50                   	push   %eax
  800daf:	8d 83 b8 63 ff ff    	lea    -0x9c48(%ebx),%eax
  800db5:	50                   	push   %eax
  800db6:	68 1d 01 00 00       	push   $0x11d
  800dbb:	8d 83 8d 62 ff ff    	lea    -0x9d73(%ebx),%eax
  800dc1:	50                   	push   %eax
  800dc2:	8d 83 ac 62 ff ff    	lea    -0x9d54(%ebx),%eax
  800dc8:	50                   	push   %eax
  800dc9:	e8 e2 15 03 00       	call   8323b0 <printf>
  800dce:	83 c4 20             	add    $0x20,%esp
  800dd1:	b8 01 00 00 00       	mov    $0x1,%eax
  800dd6:	82 0f b7             	orb    $0xb7,(%edi)
  800dd9:	45                   	inc    %ebp
  800dda:	e4 c7                	in     $0xc7,%al
  800ddc:	c2 e0 41             	ret    $0x41e0
  800ddf:	86 00                	xchg   %al,(%eax)
  800de1:	69 c0 cc 00 00 00    	imul   $0xcc,%eax,%eax
  800de7:	01 d0                	add    %edx,%eax
  800de9:	05 d2 00 00 00       	add    $0xd2,%eax
  800dee:	0f b7 00             	movzwl (%eax),%eax
  800df1:	0f b7 c0             	movzwl %ax,%eax
  800df4:	83 c0 06             	add    $0x6,%eax
  800df7:	89 c2                	mov    %eax,%edx
  800df9:	89 d0                	mov    %edx,%eax
  800dfb:	01 c0                	add    %eax,%eax
  800dfd:	01 d0                	add    %edx,%eax
  800dff:	66 89 45 f6          	mov    %ax,-0xa(%ebp)
  800e03:	0f b7 45 e4          	movzwl -0x1c(%ebp),%eax
  800e07:	c7 c2 e0 41 86 00    	mov    $0x8641e0,%edx
  800e0d:	69 c0 cc 00 00 00    	imul   $0xcc,%eax,%eax
  800e13:	01 d0                	add    %edx,%eax
  800e15:	05 e6 00 00 00       	add    $0xe6,%eax
  800e1a:	0f b7 10             	movzwl (%eax),%edx
  800e1d:	0f b7 45 f6          	movzwl -0xa(%ebp),%eax
  800e21:	01 d0                	add    %edx,%eax
  800e23:	66 89 45 f6          	mov    %ax,-0xa(%ebp)
  800e27:	66 83 7d f6 13       	cmpw   $0x13,-0xa(%ebp)
  800e2c:	7f 06                	jg     800e34 <PAL_GetEnemyDexterity+0xcc>
  800e2e:	66 c7 45 f6 14 00    	movw   $0x14,-0xa(%ebp)
  800e34:	0f b7 45 e4          	movzwl -0x1c(%ebp),%eax
  800e38:	c7 c2 e0 41 86 00    	mov    $0x8641e0,%edx
  800e3e:	69 c0 cc 00 00 00    	imul   $0xcc,%eax,%eax
  800e44:	01 d0                	add    %edx,%eax
  800e46:	05 0a 01 00 00       	add    $0x10a,%eax
  800e4b:	0f b7 00             	movzwl (%eax),%eax
  800e4e:	66 85 c0             	test   %ax,%ax
  800e51:	74 31                	je     800e84 <PAL_GetEnemyDexterity+0x11c>
  800e53:	0f b7 55 f6          	movzwl -0xa(%ebp),%edx
  800e57:	89 d0                	mov    %edx,%eax
  800e59:	01 c0                	add    %eax,%eax
  800e5b:	01 d0                	add    %edx,%eax
  800e5d:	01 c0                	add    %eax,%eax
  800e5f:	66 89 45 f6          	mov    %ax,-0xa(%ebp)
  800e63:	0f b7 45 f6          	movzwl -0xa(%ebp),%eax
  800e67:	0f bf d0             	movswl %ax,%edx
  800e6a:	69 d2 67 66 00 00    	imul   $0x6667,%edx,%edx
  800e70:	c1 ea 10             	shr    $0x10,%edx
  800e73:	66 d1 fa             	sar    %dx
  800e76:	66 c1 f8 0f          	sar    $0xf,%ax
  800e7a:	29 c2                	sub    %eax,%edx
  800e7c:	89 d0                	mov    %edx,%eax
  800e7e:	66 89 45 f6          	mov    %ax,-0xa(%ebp)
  800e82:	eb 47                	jmp    800ecb <PAL_GetEnemyDexterity+0x163>
  800e84:	0f b7 45 e4          	movzwl -0x1c(%ebp),%eax
  800e88:	c7 c2 e0 41 86 00    	mov    $0x8641e0,%edx
  800e8e:	69 c0 cc 00 00 00    	imul   $0xcc,%eax,%eax
  800e94:	01 d0                	add    %edx,%eax
  800e96:	05 fe 00 00 00       	add    $0xfe,%eax
  800e9b:	0f b7 00             	movzwl (%eax),%eax
  800e9e:	66 85 c0             	test   %ax,%ax
  800ea1:	74 28                	je     800ecb <PAL_GetEnemyDexterity+0x163>
  800ea3:	0f b7 45 f6          	movzwl -0xa(%ebp),%eax
  800ea7:	01 c0                	add    %eax,%eax
  800ea9:	66 89 45 f6          	mov    %ax,-0xa(%ebp)
  800ead:	0f b7 45 f6          	movzwl -0xa(%ebp),%eax
  800eb1:	0f bf d0             	movswl %ax,%edx
  800eb4:	69 d2 56 55 00 00    	imul   $0x5556,%edx,%edx
  800eba:	c1 ea 10             	shr    $0x10,%edx
  800ebd:	66 c1 f8 0f          	sar    $0xf,%ax
  800ec1:	89 d1                	mov    %edx,%ecx
  800ec3:	29 c1                	sub    %eax,%ecx
  800ec5:	89 c8                	mov    %ecx,%eax
  800ec7:	66 89 45 f6          	mov    %ax,-0xa(%ebp)
  800ecb:	0f b7 45 f6          	movzwl -0xa(%ebp),%eax
  800ecf:	8b 5d fc             	mov    -0x4(%ebp),%ebx
  800ed2:	c9                   	leave  
  800ed3:	c3                   	ret    

00800ed4 <PAL_GetPlayerActualDexterity>:
  800ed4:	55                   	push   %ebp
  800ed5:	89 e5                	mov    %esp,%ebp
  800ed7:	53                   	push   %ebx
  800ed8:	83 ec 24             	sub    $0x24,%esp
  800edb:	e8 37 f3 ff ff       	call   800217 <__x86.get_pc_thunk.bx>
  800ee0:	81 c3 20 b1 04 00    	add    $0x4b120,%ebx
  800ee6:	8b 45 08             	mov    0x8(%ebp),%eax
  800ee9:	66 89 45 e4          	mov    %ax,-0x1c(%ebp)
  800eed:	0f b7 45 e4          	movzwl -0x1c(%ebp),%eax
  800ef1:	83 ec 0c             	sub    $0xc,%esp
  800ef4:	50                   	push   %eax
  800ef5:	e8 dd d6 02 00       	call   82e5d7 <PAL_GetPlayerDexterity>
  800efa:	83 c4 10             	add    $0x10,%esp
  800efd:	66 89 45 f6          	mov    %ax,-0xa(%ebp)
  800f01:	c7 c0 98 41 86 00    	mov    $0x864198,%eax
  800f07:	8b 08                	mov    (%eax),%ecx
  800f09:	0f b7 55 e4          	movzwl -0x1c(%ebp),%edx
  800f0d:	89 d0                	mov    %edx,%eax
  800f0f:	c1 e0 03             	shl    $0x3,%eax
  800f12:	01 d0                	add    %edx,%eax
  800f14:	01 c0                	add    %eax,%eax
  800f16:	01 c8                	add    %ecx,%eax
  800f18:	05 8e 43 00 00       	add    $0x438e,%eax
  800f1d:	0f b7 00             	movzwl (%eax),%eax
  800f20:	66 85 c0             	test   %ax,%ax
  800f23:	74 2a                	je     800f4f <PAL_GetPlayerActualDexterity+0x7b>
  800f25:	0f b7 55 f6          	movzwl -0xa(%ebp),%edx
  800f29:	89 d0                	mov    %edx,%eax
  800f2b:	01 c0                	add    %eax,%eax
  800f2d:	01 d0                	add    %edx,%eax
  800f2f:	01 c0                	add    %eax,%eax
  800f31:	66 89 45 f6          	mov    %ax,-0xa(%ebp)
  800f35:	0f b7 45 f6          	movzwl -0xa(%ebp),%eax
  800f39:	0f b7 c0             	movzwl %ax,%eax
  800f3c:	69 c0 cd cc 00 00    	imul   $0xcccd,%eax,%eax
  800f42:	c1 e8 10             	shr    $0x10,%eax
  800f45:	66 c1 e8 02          	shr    $0x2,%ax
  800f49:	66 89 45 f6          	mov    %ax,-0xa(%ebp)
  800f4d:	eb 3f                	jmp    800f8e <PAL_GetPlayerActualDexterity+0xba>
  800f4f:	c7 c0 98 41 86 00    	mov    $0x864198,%eax
  800f55:	8b 08                	mov    (%eax),%ecx
  800f57:	0f b7 55 e4          	movzwl -0x1c(%ebp),%edx
  800f5b:	89 d0                	mov    %edx,%eax
  800f5d:	c1 e0 03             	shl    $0x3,%eax
  800f60:	01 d0                	add    %edx,%eax
  800f62:	01 c0                	add    %eax,%eax
  800f64:	01 c8                	add    %ecx,%eax
  800f66:	05 82 43 00 00       	add    $0x4382,%eax
  800f6b:	0f b7 00             	movzwl (%eax),%eax
  800f6e:	66 85 c0             	test   %ax,%ax
  800f71:	74 1b                	je     800f8e <PAL_GetPlayerActualDexterity+0xba>
  800f73:	66 d1 65 f6          	shlw   -0xa(%ebp)
  800f77:	0f b7 45 f6          	movzwl -0xa(%ebp),%eax
  800f7b:	0f b7 c0             	movzwl %ax,%eax
  800f7e:	69 c0 ab aa 00 00    	imul   $0xaaab,%eax,%eax
  800f84:	c1 e8 10             	shr    $0x10,%eax
  800f87:	66 d1 e8             	shr    %ax
  800f8a:	66 89 45 f6          	mov    %ax,-0xa(%ebp)
  800f8e:	0f b7 45 e4          	movzwl -0x1c(%ebp),%eax
  800f92:	83 ec 0c             	sub    $0xc,%esp
  800f95:	50                   	push   %eax
  800f96:	e8 01 f9 ff ff       	call   80089c <PAL_IsPlayerDying>
  800f9b:	83 c4 10             	add    $0x10,%esp
  800f9e:	85 c0                	test   %eax,%eax
  800fa0:	74 1d                	je     800fbf <PAL_GetPlayerActualDexterity+0xeb>
  800fa2:	66 c1 65 f6 02       	shlw   $0x2,-0xa(%ebp)
  800fa7:	0f b7 45 f6          	movzwl -0xa(%ebp),%eax
  800fab:	0f b7 c0             	movzwl %ax,%eax
  800fae:	69 c0 cd cc 00 00    	imul   $0xcccd,%eax,%eax
  800fb4:	c1 e8 10             	shr    $0x10,%eax
  800fb7:	66 c1 e8 02          	shr    $0x2,%ax
  800fbb:	66 89 45 f6          	mov    %ax,-0xa(%ebp)
  800fbf:	0f b7 45 f6          	movzwl -0xa(%ebp),%eax
  800fc3:	8b 5d fc             	mov    -0x4(%ebp),%ebx
  800fc6:	c9                   	leave  
  800fc7:	c3                   	ret    

00800fc8 <PAL_UpdateTimeChargingUnit>:
  800fc8:	55                   	push   %ebp
  800fc9:	89 e5                	mov    %esp,%ebp
  800fcb:	53                   	push   %ebx
  800fcc:	83 ec 14             	sub    $0x14,%esp
  800fcf:	e8 43 f2 ff ff       	call   800217 <__x86.get_pc_thunk.bx>
  800fd4:	81 c3 2c b0 04 00    	add    $0x4b02c,%ebx
  800fda:	83 ec 0c             	sub    $0xc,%esp
  800fdd:	6a 00                	push   $0x0
  800fdf:	e8 f3 d5 02 00       	call   82e5d7 <PAL_GetPlayerDexterity>
  800fe4:	83 c4 10             	add    $0x10,%esp
  800fe7:	0f b7 c0             	movzwl %ax,%eax
  800fea:	83 c0 05             	add    $0x5,%eax
  800fed:	89 45 f0             	mov    %eax,-0x10(%ebp)
  800ff0:	db 45 f0             	fildl  -0x10(%ebp)
  800ff3:	83 ec 08             	sub    $0x8,%esp
  800ff6:	d9 ee                	fldz   
  800ff8:	8d 64 24 fc          	lea    -0x4(%esp),%esp
  800ffc:	d9 1c 24             	fstps  (%esp)
  800fff:	8d 64 24 fc          	lea    -0x4(%esp),%esp
  801003:	d9 1c 24             	fstps  (%esp)
  801006:	e8 1b f8 ff ff       	call   800826 <pow>
  80100b:	83 c4 10             	add    $0x10,%esp
  80100e:	c7 c0 e0 41 86 00    	mov    $0x8641e0,%eax
  801014:	d9 98 e0 04 00 00    	fstps  0x4e0(%eax)
  80101a:	c7 c0 e0 41 86 00    	mov    $0x8641e0,%eax
  801020:	d9 80 e0 04 00 00    	flds   0x4e0(%eax)
  801026:	d9 5d f0             	fstps  -0x10(%ebp)
  801029:	83 ec 0c             	sub    $0xc,%esp
  80102c:	6a 00                	push   $0x0
  80102e:	e8 a4 d5 02 00       	call   82e5d7 <PAL_GetPlayerDexterity>
  801033:	83 c4 10             	add    $0x10,%esp
  801036:	0f b7 c0             	movzwl %ax,%eax
  801039:	89 45 ec             	mov    %eax,-0x14(%ebp)
  80103c:	db 45 ec             	fildl  -0x14(%ebp)
  80103f:	d8 7d f0             	fdivrs -0x10(%ebp)
  801042:	c7 c0 e0 41 86 00    	mov    $0x8641e0,%eax
  801048:	d9 98 e0 04 00 00    	fstps  0x4e0(%eax)
  80104e:	c7 c0 98 41 86 00    	mov    $0x864198,%eax
  801054:	8b 00                	mov    (%eax),%eax
  801056:	0f b6 80 e0 2a 00 00 	movzbl 0x2ae0(%eax),%eax
  80105d:	3c 01                	cmp    $0x1,%al
  80105f:	76 39                	jbe    80109a <PAL_UpdateTimeChargingUnit+0xd2>
  801061:	c7 c0 e0 41 86 00    	mov    $0x8641e0,%eax
  801067:	d9 80 e0 04 00 00    	flds   0x4e0(%eax)
  80106d:	c7 c0 98 41 86 00    	mov    $0x864198,%eax
  801073:	8b 00                	mov    (%eax),%eax
  801075:	0f b6 80 e0 2a 00 00 	movzbl 0x2ae0(%eax),%eax
  80107c:	0f b6 c0             	movzbl %al,%eax
  80107f:	83 c0 01             	add    $0x1,%eax
  801082:	d1 f8                	sar    %eax
  801084:	89 45 f0             	mov    %eax,-0x10(%ebp)
  801087:	db 45 f0             	fildl  -0x10(%ebp)
  80108a:	de f9                	fdivrp %st,%st(1)
  80108c:	c7 c0 e0 41 86 00    	mov    $0x8641e0,%eax
  801092:	d9 98 e0 04 00 00    	fstps  0x4e0(%eax)
  801098:	eb 46                	jmp    8010e0 <PAL_UpdateTimeChargingUnit+0x118>
  80109a:	c7 c0 e0 41 86 00    	mov    $0x8641e0,%eax
  8010a0:	d9 80 e0 04 00 00    	flds   0x4e0(%eax)
  8010a6:	d9 83 f8 64 ff ff    	flds   -0x9b08(%ebx)
  8010ac:	de f9                	fdivrp %st,%st(1)
  8010ae:	c7 c0 e0 41 86 00    	mov    $0x8641e0,%eax
  8010b4:	d9 98 e0 04 00 00    	fstps  0x4e0(%eax)
  8010ba:	c7 c0 e0 41 86 00    	mov    $0x8641e0,%eax
  8010c0:	d9 80 e0 04 00 00    	flds   0x4e0(%eax)
  8010c6:	dd 83 00 65 ff ff    	fldl   -0x9b00(%ebx)
  8010cc:	de f9                	fdivrp %st,%st(1)
  8010ce:	d9 5d f4             	fstps  -0xc(%ebp)
  8010d1:	d9 45 f4             	flds   -0xc(%ebp)
  8010d4:	c7 c0 e0 41 86 00    	mov    $0x8641e0,%eax
  8010da:	d9 98 e0 04 00 00    	fstps  0x4e0(%eax)
  8010e0:	90                   	nop
  8010e1:	8b 5d fc             	mov    -0x4(%ebp),%ebx
  8010e4:	c9                   	leave  
  8010e5:	c3                   	ret    

008010e6 <PAL_GetTimeChargingSpeed>:
  8010e6:	55                   	push   %ebp
  8010e7:	89 e5                	mov    %esp,%ebp
  8010e9:	53                   	push   %ebx
  8010ea:	83 ec 14             	sub    $0x14,%esp
  8010ed:	e8 25 f1 ff ff       	call   800217 <__x86.get_pc_thunk.bx>
  8010f2:	81 c3 0e af 04 00    	add    $0x4af0e,%ebx
  8010f8:	8b 45 08             	mov    0x8(%ebp),%eax
  8010fb:	66 89 45 f4          	mov    %ax,-0xc(%ebp)
  8010ff:	c7 c0 e0 41 86 00    	mov    $0x8641e0,%eax
  801105:	8b 80 e4 04 00 00    	mov    0x4e4(%eax),%eax
  80110b:	83 f8 01             	cmp    $0x1,%eax
  80110e:	75 10                	jne    801120 <PAL_GetTimeChargingSpeed+0x3a>
  801110:	c7 c0 e0 41 86 00    	mov    $0x8641e0,%eax
  801116:	8b 80 e8 04 00 00    	mov    0x4e8(%eax),%eax
  80111c:	85 c0                	test   %eax,%eax
  80111e:	75 17                	jne    801137 <PAL_GetTimeChargingSpeed+0x51>
  801120:	e8 da 4f 01 00       	call   8160ff <SDL_GetTicks>
  801125:	89 c2                	mov    %eax,%edx
  801127:	c7 c0 e0 41 86 00    	mov    $0x8641e0,%eax
  80112d:	8b 80 ec 06 00 00    	mov    0x6ec(%eax),%eax
  801133:	39 c2                	cmp    %eax,%edx
  801135:	73 04                	jae    80113b <PAL_GetTimeChargingSpeed+0x55>
  801137:	d9 ee                	fldz   
  801139:	eb 36                	jmp    801171 <PAL_GetTimeChargingSpeed+0x8b>
  80113b:	c7 c0 98 41 86 00    	mov    $0x864198,%eax
  801141:	8b 00                	mov    (%eax),%eax
  801143:	8b 80 dc 2a 00 00    	mov    0x2adc(%eax),%eax
  801149:	85 c0                	test   %eax,%eax
  80114b:	75 0c                	jne    801159 <PAL_GetTimeChargingSpeed+0x73>
  80114d:	0f b7 45 f4          	movzwl -0xc(%ebp),%eax
  801151:	66 c1 e8 02          	shr    $0x2,%ax
  801155:	66 89 45 f4          	mov    %ax,-0xc(%ebp)
  801159:	c7 c0 e0 41 86 00    	mov    $0x8641e0,%eax
  80115f:	d9 80 e0 04 00 00    	flds   0x4e0(%eax)
  801165:	0f b7 45 f4          	movzwl -0xc(%ebp),%eax
  801169:	89 45 f0             	mov    %eax,-0x10(%ebp)
  80116c:	db 45 f0             	fildl  -0x10(%ebp)
  80116f:	de c9                	fmulp  %st,%st(1)
  801171:	83 c4 14             	add    $0x14,%esp
  801174:	5b                   	pop    %ebx
  801175:	5d                   	pop    %ebp
  801176:	c3                   	ret    

00801177 <PAL_BattleDelay>:
  801177:	55                   	push   %ebp
  801178:	89 e5                	mov    %esp,%ebp
  80117a:	56                   	push   %esi
  80117b:	53                   	push   %ebx
  80117c:	83 ec 20             	sub    $0x20,%esp
  80117f:	e8 93 f0 ff ff       	call   800217 <__x86.get_pc_thunk.bx>
  801184:	81 c3 7c ae 04 00    	add    $0x4ae7c,%ebx
  80118a:	8b 55 08             	mov    0x8(%ebp),%edx
  80118d:	8b 45 0c             	mov    0xc(%ebp),%eax
  801190:	66 89 55 e4          	mov    %dx,-0x1c(%ebp)
  801194:	66 89 45 e0          	mov    %ax,-0x20(%ebp)
  801198:	e8 62 4f 01 00       	call   8160ff <SDL_GetTicks>
  80119d:	83 c0 28             	add    $0x28,%eax
  8011a0:	89 45 ec             	mov    %eax,-0x14(%ebp)
  8011a3:	c7 45 f4 00 00 00 00 	movl   $0x0,-0xc(%ebp)
  8011aa:	e9 e9 02 00 00       	jmp    801498 <PAL_BattleDelay+0x321>
  8011af:	83 7d 10 00          	cmpl   $0x0,0x10(%ebp)
  8011b3:	0f 84 db 01 00 00    	je     801394 <PAL_BattleDelay+0x21d>
  8011b9:	c7 45 f0 00 00 00 00 	movl   $0x0,-0x10(%ebp)
  8011c0:	e9 b6 01 00 00       	jmp    80137b <PAL_BattleDelay+0x204>
  8011c5:	c7 c2 e0 41 86 00    	mov    $0x8641e0,%edx
  8011cb:	8b 45 f0             	mov    -0x10(%ebp),%eax
  8011ce:	69 c0 cc 00 00 00    	imul   $0xcc,%eax,%eax
  8011d4:	01 d0                	add    %edx,%eax
  8011d6:	05 b4 00 00 00       	add    $0xb4,%eax
  8011db:	0f b7 00             	movzwl (%eax),%eax
  8011de:	66 85 c0             	test   %ax,%ax
  8011e1:	0f 84 8f 01 00 00    	je     801376 <PAL_BattleDelay+0x1ff>
  8011e7:	c7 c2 e0 41 86 00    	mov    $0x8641e0,%edx
  8011ed:	8b 45 f0             	mov    -0x10(%ebp),%eax
  8011f0:	69 c0 cc 00 00 00    	imul   $0xcc,%eax,%eax
  8011f6:	01 d0                	add    %edx,%eax
  8011f8:	05 00 01 00 00       	add    $0x100,%eax
  8011fd:	0f b7 00             	movzwl (%eax),%eax
  801200:	66 85 c0             	test   %ax,%ax
  801203:	0f 85 6d 01 00 00    	jne    801376 <PAL_BattleDelay+0x1ff>
  801209:	c7 c2 e0 41 86 00    	mov    $0x8641e0,%edx
  80120f:	8b 45 f0             	mov    -0x10(%ebp),%eax
  801212:	69 c0 cc 00 00 00    	imul   $0xcc,%eax,%eax
  801218:	01 d0                	add    %edx,%eax
  80121a:	05 00 01 00 00       	add    $0x100,%eax
  80121f:	0f b7 00             	movzwl (%eax),%eax
  801222:	66 85 c0             	test   %ax,%ax
  801225:	0f 85 4b 01 00 00    	jne    801376 <PAL_BattleDelay+0x1ff>
  80122b:	c7 c2 e0 41 86 00    	mov    $0x8641e0,%edx
  801231:	8b 45 f0             	mov    -0x10(%ebp),%eax
  801234:	69 c0 cc 00 00 00    	imul   $0xcc,%eax,%eax
  80123a:	01 d0                	add    %edx,%eax
  80123c:	05 bc 00 00 00       	add    $0xbc,%eax
  801241:	0f b7 00             	movzwl (%eax),%eax
  801244:	8d 50 ff             	lea    -0x1(%eax),%edx
  801247:	c7 c1 e0 41 86 00    	mov    $0x8641e0,%ecx
  80124d:	8b 45 f0             	mov    -0x10(%ebp),%eax
  801250:	69 c0 cc 00 00 00    	imul   $0xcc,%eax,%eax
  801256:	01 c8                	add    %ecx,%eax
  801258:	05 bc 00 00 00       	add    $0xbc,%eax
  80125d:	66 89 10             	mov    %dx,(%eax)
  801260:	c7 c2 e0 41 86 00    	mov    $0x8641e0,%edx
  801266:	8b 45 f0             	mov    -0x10(%ebp),%eax
  801269:	69 c0 cc 00 00 00    	imul   $0xcc,%eax,%eax
  80126f:	01 d0                	add    %edx,%eax
  801271:	05 bc 00 00 00       	add    $0xbc,%eax
  801276:	0f b7 00             	movzwl (%eax),%eax
  801279:	66 85 c0             	test   %ax,%ax
  80127c:	0f 85 a0 00 00 00    	jne    801322 <PAL_BattleDelay+0x1ab>
  801282:	c7 c2 e0 41 86 00    	mov    $0x8641e0,%edx
  801288:	8b 45 f0             	mov    -0x10(%ebp),%eax
  80128b:	69 c0 cc 00 00 00    	imul   $0xcc,%eax,%eax
  801291:	01 d0                	add    %edx,%eax
  801293:	05 60 01 00 00       	add    $0x160,%eax
  801298:	0f b7 00             	movzwl (%eax),%eax
  80129b:	8d 50 01             	lea    0x1(%eax),%edx
  80129e:	c7 c1 e0 41 86 00    	mov    $0x8641e0,%ecx
  8012a4:	8b 45 f0             	mov    -0x10(%ebp),%eax
  8012a7:	69 c0 cc 00 00 00    	imul   $0xcc,%eax,%eax
  8012ad:	01 c8                	add    %ecx,%eax
  8012af:	05 60 01 00 00       	add    $0x160,%eax
  8012b4:	66 89 10             	mov    %dx,(%eax)
  8012b7:	c7 c0 98 41 86 00    	mov    $0x864198,%eax
  8012bd:	8b 00                	mov    (%eax),%eax
  8012bf:	8b 88 b8 25 00 00    	mov    0x25b8(%eax),%ecx
  8012c5:	c7 c0 98 41 86 00    	mov    $0x864198,%eax
  8012cb:	8b 30                	mov    (%eax),%esi
  8012cd:	c7 c2 e0 41 86 00    	mov    $0x8641e0,%edx
  8012d3:	8b 45 f0             	mov    -0x10(%ebp),%eax
  8012d6:	69 c0 cc 00 00 00    	imul   $0xcc,%eax,%eax
  8012dc:	01 d0                	add    %edx,%eax
  8012de:	05 b4 00 00 00       	add    $0xb4,%eax
  8012e3:	0f b7 00             	movzwl (%eax),%eax
  8012e6:	0f b7 d0             	movzwl %ax,%edx
  8012e9:	89 d0                	mov    %edx,%eax
  8012eb:	01 c0                	add    %eax,%eax
  8012ed:	01 d0                	add    %edx,%eax
  8012ef:	c1 e0 02             	shl    $0x2,%eax
  8012f2:	01 f0                	add    %esi,%eax
  8012f4:	05 88 09 00 00       	add    $0x988,%eax
  8012f9:	0f b7 00             	movzwl (%eax),%eax
  8012fc:	0f b7 c0             	movzwl %ax,%eax
  8012ff:	6b c0 46             	imul   $0x46,%eax,%eax
  801302:	01 c8                	add    %ecx,%eax
  801304:	0f b7 40 06          	movzwl 0x6(%eax),%eax
  801308:	c7 c1 e0 41 86 00    	mov    $0x8641e0,%ecx
  80130e:	8b 55 f0             	mov    -0x10(%ebp),%edx
  801311:	69 d2 cc 00 00 00    	imul   $0xcc,%edx,%edx
  801317:	01 ca                	add    %ecx,%edx
  801319:	81 c2 bc 00 00 00    	add    $0xbc,%edx
  80131f:	66 89 02             	mov    %ax,(%edx)
  801322:	c7 c2 e0 41 86 00    	mov    $0x8641e0,%edx
  801328:	8b 45 f0             	mov    -0x10(%ebp),%eax
  80132b:	69 c0 cc 00 00 00    	imul   $0xcc,%eax,%eax
  801331:	01 d0                	add    %edx,%eax
  801333:	05 60 01 00 00       	add    $0x160,%eax
  801338:	0f b7 10             	movzwl (%eax),%edx
  80133b:	c7 c1 e0 41 86 00    	mov    $0x8641e0,%ecx
  801341:	8b 45 f0             	mov    -0x10(%ebp),%eax
  801344:	69 c0 cc 00 00 00    	imul   $0xcc,%eax,%eax
  80134a:	01 c8                	add    %ecx,%eax
  80134c:	05 b6 00 00 00       	add    $0xb6,%eax
  801351:	0f b7 00             	movzwl (%eax),%eax
  801354:	66 39 c2             	cmp    %ax,%dx
  801357:	72 1e                	jb     801377 <PAL_BattleDelay+0x200>
  801359:	c7 c2 e0 41 86 00    	mov    $0x8641e0,%edx
  80135f:	8b 45 f0             	mov    -0x10(%ebp),%eax
  801362:	69 c0 cc 00 00 00    	imul   $0xcc,%eax,%eax
  801368:	01 d0                	add    %edx,%eax
  80136a:	05 60 01 00 00       	add    $0x160,%eax
  80136f:	66 c7 00 00 00       	movw   $0x0,(%eax)
  801374:	eb 01                	jmp    801377 <PAL_BattleDelay+0x200>
  801376:	90                   	nop
  801377:	83 45 f0 01          	addl   $0x1,-0x10(%ebp)
  80137b:	c7 c0 e0 41 86 00    	mov    $0x8641e0,%eax
  801381:	0f b7 80 b0 04 00 00 	movzwl 0x4b0(%eax),%eax
  801388:	0f b7 c0             	movzwl %ax,%eax
  80138b:	39 45 f0             	cmp    %eax,-0x10(%ebp)
  80138e:	0f 8e 31 fe ff ff    	jle    8011c5 <PAL_BattleDelay+0x4e>
  801394:	e8 d8 81 02 00       	call   829571 <PAL_ProcessEvent>
  801399:	eb 12                	jmp    8013ad <PAL_BattleDelay+0x236>
  80139b:	e8 d1 81 02 00       	call   829571 <PAL_ProcessEvent>
  8013a0:	83 ec 0c             	sub    $0xc,%esp
  8013a3:	6a 01                	push   $0x1
  8013a5:	e8 73 4d 01 00       	call   81611d <SDL_Delay>
  8013aa:	83 c4 10             	add    $0x10,%esp
  8013ad:	e8 4d 4d 01 00       	call   8160ff <SDL_GetTicks>
  8013b2:	39 45 ec             	cmp    %eax,-0x14(%ebp)
  8013b5:	73 e4                	jae    80139b <PAL_BattleDelay+0x224>
  8013b7:	e8 43 4d 01 00       	call   8160ff <SDL_GetTicks>
  8013bc:	83 c0 28             	add    $0x28,%eax
  8013bf:	89 45 ec             	mov    %eax,-0x14(%ebp)
  8013c2:	e8 2d a9 00 00       	call   80bcf4 <PAL_BattleMakeScene>
  8013c7:	c7 c0 80 41 86 00    	mov    $0x864180,%eax
  8013cd:	8b 10                	mov    (%eax),%edx
  8013cf:	c7 c0 e0 41 86 00    	mov    $0x8641e0,%eax
  8013d5:	8b 80 b4 04 00 00    	mov    0x4b4(%eax),%eax
  8013db:	6a 00                	push   $0x0
  8013dd:	52                   	push   %edx
  8013de:	6a 00                	push   $0x0
  8013e0:	50                   	push   %eax
  8013e1:	e8 87 4d 01 00       	call   81616d <SDL_BlitSurface>
  8013e6:	83 c4 10             	add    $0x10,%esp
  8013e9:	e8 0d e6 01 00       	call   81f9fb <PAL_BattleUIUpdate>
  8013ee:	66 83 7d e0 00       	cmpw   $0x0,-0x20(%ebp)
  8013f3:	0f 84 8e 00 00 00    	je     801487 <PAL_BattleDelay+0x310>
  8013f9:	66 83 7d e0 1f       	cmpw   $0x1f,-0x20(%ebp)
  8013fe:	75 29                	jne    801429 <PAL_BattleDelay+0x2b2>
  801400:	0f b7 45 e0          	movzwl -0x20(%ebp),%eax
  801404:	83 ec 0c             	sub    $0xc,%esp
  801407:	50                   	push   %eax
  801408:	e8 f5 38 02 00       	call   824d02 <PAL_GetWord>
  80140d:	83 c4 10             	add    $0x10,%esp
  801410:	83 ec 0c             	sub    $0xc,%esp
  801413:	6a 00                	push   $0x0
  801415:	6a 01                	push   $0x1
  801417:	6a 0f                	push   $0xf
  801419:	68 82 00 4b 00       	push   $0x4b0082
  80141e:	50                   	push   %eax
  80141f:	e8 b7 3a 02 00       	call   824edb <PAL_DrawText>
  801424:	83 c4 20             	add    $0x20,%esp
  801427:	eb 5e                	jmp    801487 <PAL_BattleDelay+0x310>
  801429:	0f b7 45 e0          	movzwl -0x20(%ebp),%eax
  80142d:	66 85 c0             	test   %ax,%ax
  801430:	79 2e                	jns    801460 <PAL_BattleDelay+0x2e9>
  801432:	0f b7 45 e0          	movzwl -0x20(%ebp),%eax
  801436:	f7 d8                	neg    %eax
  801438:	0f b7 c0             	movzwl %ax,%eax
  80143b:	83 ec 0c             	sub    $0xc,%esp
  80143e:	50                   	push   %eax
  80143f:	e8 be 38 02 00       	call   824d02 <PAL_GetWord>
  801444:	83 c4 10             	add    $0x10,%esp
  801447:	83 ec 0c             	sub    $0xc,%esp
  80144a:	6a 00                	push   $0x0
  80144c:	6a 01                	push   $0x1
  80144e:	6a 2e                	push   $0x2e
  801450:	68 aa 00 2d 00       	push   $0x2d00aa
  801455:	50                   	push   %eax
  801456:	e8 80 3a 02 00       	call   824edb <PAL_DrawText>
  80145b:	83 c4 20             	add    $0x20,%esp
  80145e:	eb 27                	jmp    801487 <PAL_BattleDelay+0x310>
  801460:	0f b7 45 e0          	movzwl -0x20(%ebp),%eax
  801464:	83 ec 0c             	sub    $0xc,%esp
  801467:	50                   	push   %eax
  801468:	e8 95 38 02 00       	call   824d02 <PAL_GetWord>
  80146d:	83 c4 10             	add    $0x10,%esp
  801470:	83 ec 0c             	sub    $0xc,%esp
  801473:	6a 00                	push   $0x0
  801475:	6a 01                	push   $0x1
  801477:	6a 0f                	push   $0xf
  801479:	68 d2 00 32 00       	push   $0x3200d2
  80147e:	50                   	push   %eax
  80147f:	e8 57 3a 02 00       	call   824edb <PAL_DrawText>
  801484:	83 c4 20             	add    $0x20,%esp
  801487:	83 ec 0c             	sub    $0xc,%esp
  80148a:	6a 00                	push   $0x0
  80148c:	e8 68 94 02 00       	call   82a8f9 <VIDEO_UpdateScreen>
  801491:	83 c4 10             	add    $0x10,%esp
  801494:	83 45 f4 01          	addl   $0x1,-0xc(%ebp)
  801498:	0f b7 45 e4          	movzwl -0x1c(%ebp),%eax
  80149c:	39 45 f4             	cmp    %eax,-0xc(%ebp)
  80149f:	0f 8c 0a fd ff ff    	jl     8011af <PAL_BattleDelay+0x38>
  8014a5:	90                   	nop
  8014a6:	8d 65 f8             	lea    -0x8(%ebp),%esp
  8014a9:	5b                   	pop    %ebx
  8014aa:	5e                   	pop    %esi
  8014ab:	5d                   	pop    %ebp
  8014ac:	c3                   	ret    

008014ad <PAL_BattleBackupStat>:
  8014ad:	55                   	push   %ebp
  8014ae:	89 e5                	mov    %esp,%ebp
  8014b0:	53                   	push   %ebx
  8014b1:	83 ec 10             	sub    $0x10,%esp
  8014b4:	e8 5a ed ff ff       	call   800213 <__x86.get_pc_thunk.ax>
  8014b9:	05 47 ab 04 00       	add    $0x4ab47,%eax
  8014be:	c7 45 f8 00 00 00 00 	movl   $0x0,-0x8(%ebp)
  8014c5:	eb 5a                	jmp    801521 <PAL_BattleBackupStat+0x74>
  8014c7:	c7 c1 e0 41 86 00    	mov    $0x8641e0,%ecx
  8014cd:	8b 55 f8             	mov    -0x8(%ebp),%edx
  8014d0:	69 d2 cc 00 00 00    	imul   $0xcc,%edx,%edx
  8014d6:	01 ca                	add    %ecx,%edx
  8014d8:	81 c2 b4 00 00 00    	add    $0xb4,%edx
  8014de:	0f b7 12             	movzwl (%edx),%edx
  8014e1:	66 85 d2             	test   %dx,%dx
  8014e4:	74 36                	je     80151c <PAL_BattleBackupStat+0x6f>
  8014e6:	c7 c1 e0 41 86 00    	mov    $0x8641e0,%ecx
  8014ec:	8b 55 f8             	mov    -0x8(%ebp),%edx
  8014ef:	69 d2 cc 00 00 00    	imul   $0xcc,%edx,%edx
  8014f5:	01 ca                	add    %ecx,%edx
  8014f7:	81 c2 cc 00 00 00    	add    $0xcc,%edx
  8014fd:	0f b7 12             	movzwl (%edx),%edx
  801500:	c7 c3 e0 41 86 00    	mov    $0x8641e0,%ebx
  801506:	8b 4d f8             	mov    -0x8(%ebp),%ecx
  801509:	69 c9 cc 00 00 00    	imul   $0xcc,%ecx,%ecx
  80150f:	01 d9                	add    %ebx,%ecx
  801511:	81 c1 7a 01 00 00    	add    $0x17a,%ecx
  801517:	66 89 11             	mov    %dx,(%ecx)
  80151a:	eb 01                	jmp    80151d <PAL_BattleBackupStat+0x70>
  80151c:	90                   	nop
  80151d:	83 45 f8 01          	addl   $0x1,-0x8(%ebp)
  801521:	c7 c2 e0 41 86 00    	mov    $0x8641e0,%edx
  801527:	0f b7 92 b0 04 00 00 	movzwl 0x4b0(%edx),%edx
  80152e:	0f b7 d2             	movzwl %dx,%edx
  801531:	39 55 f8             	cmp    %edx,-0x8(%ebp)
  801534:	7e 91                	jle    8014c7 <PAL_BattleBackupStat+0x1a>
  801536:	c7 45 f8 00 00 00 00 	movl   $0x0,-0x8(%ebp)
  80153d:	eb 7d                	jmp    8015bc <PAL_BattleBackupStat+0x10f>
  80153f:	c7 c2 98 41 86 00    	mov    $0x864198,%edx
  801545:	8b 1a                	mov    (%edx),%ebx
  801547:	8b 4d f8             	mov    -0x8(%ebp),%ecx
  80154a:	89 ca                	mov    %ecx,%edx
  80154c:	c1 e2 02             	shl    $0x2,%edx
  80154f:	01 ca                	add    %ecx,%edx
  801551:	01 d2                	add    %edx,%edx
  801553:	01 da                	add    %ebx,%edx
  801555:	81 c2 f8 43 00 00    	add    $0x43f8,%edx
  80155b:	0f b7 12             	movzwl (%edx),%edx
  80155e:	66 89 55 f6          	mov    %dx,-0xa(%ebp)
  801562:	c7 c2 98 41 86 00    	mov    $0x864198,%edx
  801568:	8b 12                	mov    (%edx),%edx
  80156a:	0f b7 4d f6          	movzwl -0xa(%ebp),%ecx
  80156e:	81 c1 10 13 00 00    	add    $0x1310,%ecx
  801574:	0f b7 54 4a 14       	movzwl 0x14(%edx,%ecx,2),%edx
  801579:	c7 c3 e0 41 86 00    	mov    $0x8641e0,%ebx
  80157f:	8b 4d f8             	mov    -0x8(%ebp),%ecx
  801582:	6b c9 3c             	imul   $0x3c,%ecx,%ecx
  801585:	01 d9                	add    %ebx,%ecx
  801587:	83 c1 34             	add    $0x34,%ecx
  80158a:	66 89 11             	mov    %dx,(%ecx)
  80158d:	c7 c2 98 41 86 00    	mov    $0x864198,%edx
  801593:	8b 12                	mov    (%edx),%edx
  801595:	0f b7 4d f6          	movzwl -0xa(%ebp),%ecx
  801599:	81 c1 18 13 00 00    	add    $0x1318,%ecx
  80159f:	0f b7 54 4a 10       	movzwl 0x10(%edx,%ecx,2),%edx
  8015a4:	c7 c3 e0 41 86 00    	mov    $0x8641e0,%ebx
  8015aa:	8b 4d f8             	mov    -0x8(%ebp),%ecx
  8015ad:	6b c9 3c             	imul   $0x3c,%ecx,%ecx
  8015b0:	01 d9                	add    %ebx,%ecx
  8015b2:	83 c1 36             	add    $0x36,%ecx
  8015b5:	66 89 11             	mov    %dx,(%ecx)
  8015b8:	83 45 f8 01          	addl   $0x1,-0x8(%ebp)
  8015bc:	c7 c2 98 41 86 00    	mov    $0x864198,%edx
  8015c2:	8b 12                	mov    (%edx),%edx
  8015c4:	0f b7 92 f6 43 00 00 	movzwl 0x43f6(%edx),%edx
  8015cb:	0f b7 d2             	movzwl %dx,%edx
  8015ce:	39 55 f8             	cmp    %edx,-0x8(%ebp)
  8015d1:	0f 8e 68 ff ff ff    	jle    80153f <PAL_BattleBackupStat+0x92>
  8015d7:	90                   	nop
  8015d8:	83 c4 10             	add    $0x10,%esp
  8015db:	5b                   	pop    %ebx
  8015dc:	5d                   	pop    %ebp
  8015dd:	c3                   	ret    

008015de <PAL_BattleDisplayStatChange>:
  8015de:	55                   	push   %ebp
  8015df:	89 e5                	mov    %esp,%ebp
  8015e1:	53                   	push   %ebx
  8015e2:	83 ec 24             	sub    $0x24,%esp
  8015e5:	e8 2d ec ff ff       	call   800217 <__x86.get_pc_thunk.bx>
  8015ea:	81 c3 16 aa 04 00    	add    $0x4aa16,%ebx
  8015f0:	c7 45 ec 00 00 00 00 	movl   $0x0,-0x14(%ebp)
  8015f7:	c7 45 f4 00 00 00 00 	movl   $0x0,-0xc(%ebp)
  8015fe:	e9 50 01 00 00       	jmp    801753 <PAL_BattleDisplayStatChange+0x175>
  801603:	c7 c2 e0 41 86 00    	mov    $0x8641e0,%edx
  801609:	8b 45 f4             	mov    -0xc(%ebp),%eax
  80160c:	69 c0 cc 00 00 00    	imul   $0xcc,%eax,%eax
  801612:	01 d0                	add    %edx,%eax
  801614:	05 b4 00 00 00       	add    $0xb4,%eax
  801619:	0f b7 00             	movzwl (%eax),%eax
  80161c:	66 85 c0             	test   %ax,%ax
  80161f:	0f 84 29 01 00 00    	je     80174e <PAL_BattleDisplayStatChange+0x170>
  801625:	c7 c2 e0 41 86 00    	mov    $0x8641e0,%edx
  80162b:	8b 45 f4             	mov    -0xc(%ebp),%eax
  80162e:	69 c0 cc 00 00 00    	imul   $0xcc,%eax,%eax
  801634:	01 d0                	add    %edx,%eax
  801636:	05 7a 01 00 00       	add    $0x17a,%eax
  80163b:	0f b7 10             	movzwl (%eax),%edx
  80163e:	c7 c1 e0 41 86 00    	mov    $0x8641e0,%ecx
  801644:	8b 45 f4             	mov    -0xc(%ebp),%eax
  801647:	69 c0 cc 00 00 00    	imul   $0xcc,%eax,%eax
  80164d:	01 c8                	add    %ecx,%eax
  80164f:	05 cc 00 00 00       	add    $0xcc,%eax
  801654:	0f b7 00             	movzwl (%eax),%eax
  801657:	66 39 c2             	cmp    %ax,%dx
  80165a:	0f 84 ef 00 00 00    	je     80174f <PAL_BattleDisplayStatChange+0x171>
  801660:	c7 c2 e0 41 86 00    	mov    $0x8641e0,%edx
  801666:	8b 45 f4             	mov    -0xc(%ebp),%eax
  801669:	69 c0 cc 00 00 00    	imul   $0xcc,%eax,%eax
  80166f:	01 d0                	add    %edx,%eax
  801671:	05 cc 00 00 00       	add    $0xcc,%eax
  801676:	0f b7 10             	movzwl (%eax),%edx
  801679:	c7 c1 e0 41 86 00    	mov    $0x8641e0,%ecx
  80167f:	8b 45 f4             	mov    -0xc(%ebp),%eax
  801682:	69 c0 cc 00 00 00    	imul   $0xcc,%eax,%eax
  801688:	01 c8                	add    %ecx,%eax
  80168a:	05 7a 01 00 00       	add    $0x17a,%eax
  80168f:	0f b7 00             	movzwl (%eax),%eax
  801692:	29 c2                	sub    %eax,%edx
  801694:	89 d0                	mov    %edx,%eax
  801696:	66 89 45 ea          	mov    %ax,-0x16(%ebp)
  80169a:	c7 c2 e0 41 86 00    	mov    $0x8641e0,%edx
  8016a0:	8b 45 f4             	mov    -0xc(%ebp),%eax
  8016a3:	69 c0 cc 00 00 00    	imul   $0xcc,%eax,%eax
  8016a9:	01 d0                	add    %edx,%eax
  8016ab:	05 58 01 00 00       	add    $0x158,%eax
  8016b0:	8b 00                	mov    (%eax),%eax
  8016b2:	98                   	cwtl   
  8016b3:	83 e8 09             	sub    $0x9,%eax
  8016b6:	89 45 e4             	mov    %eax,-0x1c(%ebp)
  8016b9:	c7 c2 e0 41 86 00    	mov    $0x8641e0,%edx
  8016bf:	8b 45 f4             	mov    -0xc(%ebp),%eax
  8016c2:	69 c0 cc 00 00 00    	imul   $0xcc,%eax,%eax
  8016c8:	01 d0                	add    %edx,%eax
  8016ca:	05 58 01 00 00       	add    $0x158,%eax
  8016cf:	8b 00                	mov    (%eax),%eax
  8016d1:	c1 e8 10             	shr    $0x10,%eax
  8016d4:	98                   	cwtl   
  8016d5:	83 e8 73             	sub    $0x73,%eax
  8016d8:	89 45 f0             	mov    %eax,-0x10(%ebp)
  8016db:	83 7d f0 09          	cmpl   $0x9,-0x10(%ebp)
  8016df:	7f 07                	jg     8016e8 <PAL_BattleDisplayStatChange+0x10a>
  8016e1:	c7 45 f0 0a 00 00 00 	movl   $0xa,-0x10(%ebp)
  8016e8:	66 83 7d ea 00       	cmpw   $0x0,-0x16(%ebp)
  8016ed:	79 2d                	jns    80171c <PAL_BattleDisplayStatChange+0x13e>
  8016ef:	8b 45 f0             	mov    -0x10(%ebp),%eax
  8016f2:	0f b7 c0             	movzwl %ax,%eax
  8016f5:	c1 e0 10             	shl    $0x10,%eax
  8016f8:	89 c2                	mov    %eax,%edx
  8016fa:	8b 45 e4             	mov    -0x1c(%ebp),%eax
  8016fd:	0f b7 c0             	movzwl %ax,%eax
  801700:	09 c2                	or     %eax,%edx
  801702:	0f b7 45 ea          	movzwl -0x16(%ebp),%eax
  801706:	f7 d8                	neg    %eax
  801708:	0f b7 c0             	movzwl %ax,%eax
  80170b:	83 ec 04             	sub    $0x4,%esp
  80170e:	6a 01                	push   $0x1
  801710:	52                   	push   %edx
  801711:	50                   	push   %eax
  801712:	e8 69 03 02 00       	call   821a80 <PAL_BattleUIShowNum>
  801717:	83 c4 10             	add    $0x10,%esp
  80171a:	eb 29                	jmp    801745 <PAL_BattleDisplayStatChange+0x167>
  80171c:	8b 45 f0             	mov    -0x10(%ebp),%eax
  80171f:	0f b7 c0             	movzwl %ax,%eax
  801722:	c1 e0 10             	shl    $0x10,%eax
  801725:	89 c2                	mov    %eax,%edx
  801727:	8b 45 e4             	mov    -0x1c(%ebp),%eax
  80172a:	0f b7 c0             	movzwl %ax,%eax
  80172d:	09 c2                	or     %eax,%edx
  80172f:	0f b7 45 ea          	movzwl -0x16(%ebp),%eax
  801733:	0f b7 c0             	movzwl %ax,%eax
  801736:	83 ec 04             	sub    $0x4,%esp
  801739:	6a 00                	push   $0x0
  80173b:	52                   	push   %edx
  80173c:	50                   	push   %eax
  80173d:	e8 3e 03 02 00       	call   821a80 <PAL_BattleUIShowNum>
  801742:	83 c4 10             	add    $0x10,%esp
  801745:	c7 45 ec 01 00 00 00 	movl   $0x1,-0x14(%ebp)
  80174c:	eb 01                	jmp    80174f <PAL_BattleDisplayStatChange+0x171>
  80174e:	90                   	nop
  80174f:	83 45 f4 01          	addl   $0x1,-0xc(%ebp)
  801753:	c7 c0 e0 41 86 00    	mov    $0x8641e0,%eax
  801759:	0f b7 80 b0 04 00 00 	movzwl 0x4b0(%eax),%eax
  801760:	0f b7 c0             	movzwl %ax,%eax
  801763:	39 45 f4             	cmp    %eax,-0xc(%ebp)
  801766:	0f 8e 97 fe ff ff    	jle    801603 <PAL_BattleDisplayStatChange+0x25>
  80176c:	c7 45 f4 00 00 00 00 	movl   $0x0,-0xc(%ebp)
  801773:	e9 17 02 00 00       	jmp    80198f <PAL_BattleDisplayStatChange+0x3b1>
  801778:	c7 c0 98 41 86 00    	mov    $0x864198,%eax
  80177e:	8b 08                	mov    (%eax),%ecx
  801780:	8b 55 f4             	mov    -0xc(%ebp),%edx
  801783:	89 d0                	mov    %edx,%eax
  801785:	c1 e0 02             	shl    $0x2,%eax
  801788:	01 d0                	add    %edx,%eax
  80178a:	01 c0                	add    %eax,%eax
  80178c:	01 c8                	add    %ecx,%eax
  80178e:	05 f8 43 00 00       	add    $0x43f8,%eax
  801793:	0f b7 00             	movzwl (%eax),%eax
  801796:	66 89 45 e2          	mov    %ax,-0x1e(%ebp)
  80179a:	c7 c2 e0 41 86 00    	mov    $0x8641e0,%edx
  8017a0:	8b 45 f4             	mov    -0xc(%ebp),%eax
  8017a3:	6b c0 3c             	imul   $0x3c,%eax,%eax
  8017a6:	01 d0                	add    %edx,%eax
  8017a8:	83 c0 34             	add    $0x34,%eax
  8017ab:	0f b7 10             	movzwl (%eax),%edx
  8017ae:	c7 c0 98 41 86 00    	mov    $0x864198,%eax
  8017b4:	8b 00                	mov    (%eax),%eax
  8017b6:	0f b7 4d e2          	movzwl -0x1e(%ebp),%ecx
  8017ba:	81 c1 10 13 00 00    	add    $0x1310,%ecx
  8017c0:	0f b7 44 48 14       	movzwl 0x14(%eax,%ecx,2),%eax
  8017c5:	66 39 c2             	cmp    %ax,%dx
  8017c8:	0f 84 db 00 00 00    	je     8018a9 <PAL_BattleDisplayStatChange+0x2cb>
  8017ce:	c7 c0 98 41 86 00    	mov    $0x864198,%eax
  8017d4:	8b 00                	mov    (%eax),%eax
  8017d6:	0f b7 55 e2          	movzwl -0x1e(%ebp),%edx
  8017da:	81 c2 10 13 00 00    	add    $0x1310,%edx
  8017e0:	0f b7 54 50 14       	movzwl 0x14(%eax,%edx,2),%edx
  8017e5:	c7 c1 e0 41 86 00    	mov    $0x8641e0,%ecx
  8017eb:	8b 45 f4             	mov    -0xc(%ebp),%eax
  8017ee:	6b c0 3c             	imul   $0x3c,%eax,%eax
  8017f1:	01 c8                	add    %ecx,%eax
  8017f3:	83 c0 34             	add    $0x34,%eax
  8017f6:	0f b7 00             	movzwl (%eax),%eax
  8017f9:	29 c2                	sub    %eax,%edx
  8017fb:	89 d0                	mov    %edx,%eax
  8017fd:	66 89 45 ea          	mov    %ax,-0x16(%ebp)
  801801:	c7 c2 e0 41 86 00    	mov    $0x8641e0,%edx
  801807:	8b 45 f4             	mov    -0xc(%ebp),%eax
  80180a:	6b c0 3c             	imul   $0x3c,%eax,%eax
  80180d:	01 d0                	add    %edx,%eax
  80180f:	83 c0 14             	add    $0x14,%eax
  801812:	8b 00                	mov    (%eax),%eax
  801814:	98                   	cwtl   
  801815:	83 e8 09             	sub    $0x9,%eax
  801818:	89 45 e4             	mov    %eax,-0x1c(%ebp)
  80181b:	c7 c2 e0 41 86 00    	mov    $0x8641e0,%edx
  801821:	8b 45 f4             	mov    -0xc(%ebp),%eax
  801824:	6b c0 3c             	imul   $0x3c,%eax,%eax
  801827:	01 d0                	add    %edx,%eax
  801829:	83 c0 14             	add    $0x14,%eax
  80182c:	8b 00                	mov    (%eax),%eax
  80182e:	c1 e8 10             	shr    $0x10,%eax
  801831:	98                   	cwtl   
  801832:	83 e8 4b             	sub    $0x4b,%eax
  801835:	89 45 f0             	mov    %eax,-0x10(%ebp)
  801838:	83 7d f0 09          	cmpl   $0x9,-0x10(%ebp)
  80183c:	7f 07                	jg     801845 <PAL_BattleDisplayStatChange+0x267>
  80183e:	c7 45 f0 0a 00 00 00 	movl   $0xa,-0x10(%ebp)
  801845:	66 83 7d ea 00       	cmpw   $0x0,-0x16(%ebp)
  80184a:	79 2d                	jns    801879 <PAL_BattleDisplayStatChange+0x29b>
  80184c:	8b 45 f0             	mov    -0x10(%ebp),%eax
  80184f:	0f b7 c0             	movzwl %ax,%eax
  801852:	c1 e0 10             	shl    $0x10,%eax
  801855:	89 c2                	mov    %eax,%edx
  801857:	8b 45 e4             	mov    -0x1c(%ebp),%eax
  80185a:	0f b7 c0             	movzwl %ax,%eax
  80185d:	09 c2                	or     %eax,%edx
  80185f:	0f b7 45 ea          	movzwl -0x16(%ebp),%eax
  801863:	f7 d8                	neg    %eax
  801865:	0f b7 c0             	movzwl %ax,%eax
  801868:	83 ec 04             	sub    $0x4,%esp
  80186b:	6a 01                	push   $0x1
  80186d:	52                   	push   %edx
  80186e:	50                   	push   %eax
  80186f:	e8 0c 02 02 00       	call   821a80 <PAL_BattleUIShowNum>
  801874:	83 c4 10             	add    $0x10,%esp
  801877:	eb 29                	jmp    8018a2 <PAL_BattleDisplayStatChange+0x2c4>
  801879:	8b 45 f0             	mov    -0x10(%ebp),%eax
  80187c:	0f b7 c0             	movzwl %ax,%eax
  80187f:	c1 e0 10             	shl    $0x10,%eax
  801882:	89 c2                	mov    %eax,%edx
  801884:	8b 45 e4             	mov    -0x1c(%ebp),%eax
  801887:	0f b7 c0             	movzwl %ax,%eax
  80188a:	09 c2                	or     %eax,%edx
  80188c:	0f b7 45 ea          	movzwl -0x16(%ebp),%eax
  801890:	0f b7 c0             	movzwl %ax,%eax
  801893:	83 ec 04             	sub    $0x4,%esp
  801896:	6a 00                	push   $0x0
  801898:	52                   	push   %edx
  801899:	50                   	push   %eax
  80189a:	e8 e1 01 02 00       	call   821a80 <PAL_BattleUIShowNum>
  80189f:	83 c4 10             	add    $0x10,%esp
  8018a2:	c7 45 ec 01 00 00 00 	movl   $0x1,-0x14(%ebp)
  8018a9:	c7 c2 e0 41 86 00    	mov    $0x8641e0,%edx
  8018af:	8b 45 f4             	mov    -0xc(%ebp),%eax
  8018b2:	6b c0 3c             	imul   $0x3c,%eax,%eax
  8018b5:	01 d0                	add    %edx,%eax
  8018b7:	83 c0 36             	add    $0x36,%eax
  8018ba:	0f b7 10             	movzwl (%eax),%edx
  8018bd:	c7 c0 98 41 86 00    	mov    $0x864198,%eax
  8018c3:	8b 00                	mov    (%eax),%eax
  8018c5:	0f b7 4d e2          	movzwl -0x1e(%ebp),%ecx
  8018c9:	81 c1 18 13 00 00    	add    $0x1318,%ecx
  8018cf:	0f b7 44 48 10       	movzwl 0x10(%eax,%ecx,2),%eax
  8018d4:	66 39 c2             	cmp    %ax,%dx
  8018d7:	0f 84 ae 00 00 00    	je     80198b <PAL_BattleDisplayStatChange+0x3ad>
  8018dd:	c7 c0 98 41 86 00    	mov    $0x864198,%eax
  8018e3:	8b 00                	mov    (%eax),%eax
  8018e5:	0f b7 55 e2          	movzwl -0x1e(%ebp),%edx
  8018e9:	81 c2 18 13 00 00    	add    $0x1318,%edx
  8018ef:	0f b7 54 50 10       	movzwl 0x10(%eax,%edx,2),%edx
  8018f4:	c7 c1 e0 41 86 00    	mov    $0x8641e0,%ecx
  8018fa:	8b 45 f4             	mov    -0xc(%ebp),%eax
  8018fd:	6b c0 3c             	imul   $0x3c,%eax,%eax
  801900:	01 c8                	add    %ecx,%eax
  801902:	83 c0 36             	add    $0x36,%eax
  801905:	0f b7 00             	movzwl (%eax),%eax
  801908:	29 c2                	sub    %eax,%edx
  80190a:	89 d0                	mov    %edx,%eax
  80190c:	66 89 45 ea          	mov    %ax,-0x16(%ebp)
  801910:	c7 c2 e0 41 86 00    	mov    $0x8641e0,%edx
  801916:	8b 45 f4             	mov    -0xc(%ebp),%eax
  801919:	6b c0 3c             	imul   $0x3c,%eax,%eax
  80191c:	01 d0                	add    %edx,%eax
  80191e:	83 c0 14             	add    $0x14,%eax
  801921:	8b 00                	mov    (%eax),%eax
  801923:	98                   	cwtl   
  801924:	83 e8 09             	sub    $0x9,%eax
  801927:	89 45 e4             	mov    %eax,-0x1c(%ebp)
  80192a:	c7 c2 e0 41 86 00    	mov    $0x8641e0,%edx
  801930:	8b 45 f4             	mov    -0xc(%ebp),%eax
  801933:	6b c0 3c             	imul   $0x3c,%eax,%eax
  801936:	01 d0                	add    %edx,%eax
  801938:	83 c0 14             	add    $0x14,%eax
  80193b:	8b 00                	mov    (%eax),%eax
  80193d:	c1 e8 10             	shr    $0x10,%eax
  801940:	98                   	cwtl   
  801941:	83 e8 43             	sub    $0x43,%eax
  801944:	89 45 f0             	mov    %eax,-0x10(%ebp)
  801947:	83 7d f0 09          	cmpl   $0x9,-0x10(%ebp)
  80194b:	7f 07                	jg     801954 <PAL_BattleDisplayStatChange+0x376>
  80194d:	c7 45 f0 0a 00 00 00 	movl   $0xa,-0x10(%ebp)
  801954:	66 83 7d ea 00       	cmpw   $0x0,-0x16(%ebp)
  801959:	7e 29                	jle    801984 <PAL_BattleDisplayStatChange+0x3a6>
  80195b:	8b 45 f0             	mov    -0x10(%ebp),%eax
  80195e:	0f b7 c0             	movzwl %ax,%eax
  801961:	c1 e0 10             	shl    $0x10,%eax
  801964:	89 c2                	mov    %eax,%edx
  801966:	8b 45 e4             	mov    -0x1c(%ebp),%eax
  801969:	0f b7 c0             	movzwl %ax,%eax
  80196c:	09 c2                	or     %eax,%edx
  80196e:	0f b7 45 ea          	movzwl -0x16(%ebp),%eax
  801972:	0f b7 c0             	movzwl %ax,%eax
  801975:	83 ec 04             	sub    $0x4,%esp
  801978:	6a 02                	push   $0x2
  80197a:	52                   	push   %edx
  80197b:	50                   	push   %eax
  80197c:	e8 ff 00 02 00       	call   821a80 <PAL_BattleUIShowNum>
  801981:	83 c4 10             	add    $0x10,%esp
  801984:	c7 45 ec 01 00 00 00 	movl   $0x1,-0x14(%ebp)
  80198b:	83 45 f4 01          	addl   $0x1,-0xc(%ebp)
  80198f:	c7 c0 98 41 86 00    	mov    $0x864198,%eax
  801995:	8b 00                	mov    (%eax),%eax
  801997:	0f b7 80 f6 43 00 00 	movzwl 0x43f6(%eax),%eax
  80199e:	0f b7 c0             	movzwl %ax,%eax
  8019a1:	39 45 f4             	cmp    %eax,-0xc(%ebp)
  8019a4:	0f 8e ce fd ff ff    	jle    801778 <PAL_BattleDisplayStatChange+0x19a>
  8019aa:	8b 45 ec             	mov    -0x14(%ebp),%eax
  8019ad:	8b 5d fc             	mov    -0x4(%ebp),%ebx
  8019b0:	c9                   	leave  
  8019b1:	c3                   	ret    

008019b2 <PAL_BattlePostActionCheck>:
  8019b2:	55                   	push   %ebp
  8019b3:	89 e5                	mov    %esp,%ebp
  8019b5:	57                   	push   %edi
  8019b6:	56                   	push   %esi
  8019b7:	53                   	push   %ebx
  8019b8:	83 ec 2c             	sub    $0x2c,%esp
  8019bb:	e8 57 e8 ff ff       	call   800217 <__x86.get_pc_thunk.bx>
  8019c0:	81 c3 40 a6 04 00    	add    $0x4a640,%ebx
  8019c6:	c7 45 dc 00 00 00 00 	movl   $0x0,-0x24(%ebp)
  8019cd:	c7 45 d8 00 00 00 00 	movl   $0x0,-0x28(%ebp)
  8019d4:	c7 45 e4 00 00 00 00 	movl   $0x0,-0x1c(%ebp)
  8019db:	e9 0c 01 00 00       	jmp    801aec <PAL_BattlePostActionCheck+0x13a>
  8019e0:	c7 c2 e0 41 86 00    	mov    $0x8641e0,%edx
  8019e6:	8b 45 e4             	mov    -0x1c(%ebp),%eax
  8019e9:	69 c0 cc 00 00 00    	imul   $0xcc,%eax,%eax
  8019ef:	01 d0                	add    %edx,%eax
  8019f1:	05 b4 00 00 00       	add    $0xb4,%eax
  8019f6:	0f b7 00             	movzwl (%eax),%eax
  8019f9:	66 85 c0             	test   %ax,%ax
  8019fc:	0f 84 e5 00 00 00    	je     801ae7 <PAL_BattlePostActionCheck+0x135>
  801a02:	c7 c2 e0 41 86 00    	mov    $0x8641e0,%edx
  801a08:	8b 45 e4             	mov    -0x1c(%ebp),%eax
  801a0b:	69 c0 cc 00 00 00    	imul   $0xcc,%eax,%eax
  801a11:	01 d0                	add    %edx,%eax
  801a13:	05 cc 00 00 00       	add    $0xcc,%eax
  801a18:	0f b7 00             	movzwl (%eax),%eax
  801a1b:	66 85 c0             	test   %ax,%ax
  801a1e:	0f 8f ba 00 00 00    	jg     801ade <PAL_BattlePostActionCheck+0x12c>
  801a24:	c7 c0 e0 41 86 00    	mov    $0x8641e0,%eax
  801a2a:	8b 90 cc 04 00 00    	mov    0x4cc(%eax),%edx
  801a30:	c7 c1 e0 41 86 00    	mov    $0x8641e0,%ecx
  801a36:	8b 45 e4             	mov    -0x1c(%ebp),%eax
  801a39:	69 c0 cc 00 00 00    	imul   $0xcc,%eax,%eax
  801a3f:	01 c8                	add    %ecx,%eax
  801a41:	05 ce 00 00 00       	add    $0xce,%eax
  801a46:	0f b7 00             	movzwl (%eax),%eax
  801a49:	0f b7 c0             	movzwl %ax,%eax
  801a4c:	01 c2                	add    %eax,%edx
  801a4e:	c7 c0 e0 41 86 00    	mov    $0x8641e0,%eax
  801a54:	89 90 cc 04 00 00    	mov    %edx,0x4cc(%eax)
  801a5a:	c7 c0 e0 41 86 00    	mov    $0x8641e0,%eax
  801a60:	8b 90 d0 04 00 00    	mov    0x4d0(%eax),%edx
  801a66:	c7 c1 e0 41 86 00    	mov    $0x8641e0,%ecx
  801a6c:	8b 45 e4             	mov    -0x1c(%ebp),%eax
  801a6f:	69 c0 cc 00 00 00    	imul   $0xcc,%eax,%eax
  801a75:	01 c8                	add    %ecx,%eax
  801a77:	05 d0 00 00 00       	add    $0xd0,%eax
  801a7c:	0f b7 00             	movzwl (%eax),%eax
  801a7f:	0f b7 c0             	movzwl %ax,%eax
  801a82:	01 c2                	add    %eax,%edx
  801a84:	c7 c0 e0 41 86 00    	mov    $0x8641e0,%eax
  801a8a:	89 90 d0 04 00 00    	mov    %edx,0x4d0(%eax)
  801a90:	c7 c2 e0 41 86 00    	mov    $0x8641e0,%edx
  801a96:	8b 45 e4             	mov    -0x1c(%ebp),%eax
  801a99:	69 c0 cc 00 00 00    	imul   $0xcc,%eax,%eax
  801a9f:	01 d0                	add    %edx,%eax
  801aa1:	05 c8 00 00 00       	add    $0xc8,%eax
  801aa6:	0f b7 00             	movzwl (%eax),%eax
  801aa9:	0f b7 c0             	movzwl %ax,%eax
  801aac:	83 ec 08             	sub    $0x8,%esp
  801aaf:	6a 00                	push   $0x0
  801ab1:	50                   	push   %eax
  801ab2:	e8 d2 ef 00 00       	call   810a89 <SOUND_PlayChannel>
  801ab7:	83 c4 10             	add    $0x10,%esp
  801aba:	c7 c2 e0 41 86 00    	mov    $0x8641e0,%edx
  801ac0:	8b 45 e4             	mov    -0x1c(%ebp),%eax
  801ac3:	69 c0 cc 00 00 00    	imul   $0xcc,%eax,%eax
  801ac9:	01 d0                	add    %edx,%eax
  801acb:	05 b4 00 00 00       	add    $0xb4,%eax
  801ad0:	66 c7 00 00 00       	movw   $0x0,(%eax)
  801ad5:	c7 45 dc 01 00 00 00 	movl   $0x1,-0x24(%ebp)
  801adc:	eb 0a                	jmp    801ae8 <PAL_BattlePostActionCheck+0x136>
  801ade:	c7 45 d8 01 00 00 00 	movl   $0x1,-0x28(%ebp)
  801ae5:	eb 01                	jmp    801ae8 <PAL_BattlePostActionCheck+0x136>
  801ae7:	90                   	nop
  801ae8:	83 45 e4 01          	addl   $0x1,-0x1c(%ebp)
  801aec:	c7 c0 e0 41 86 00    	mov    $0x8641e0,%eax
  801af2:	0f b7 80 b0 04 00 00 	movzwl 0x4b0(%eax),%eax
  801af9:	0f b7 c0             	movzwl %ax,%eax
  801afc:	39 45 e4             	cmp    %eax,-0x1c(%ebp)
  801aff:	0f 8e db fe ff ff    	jle    8019e0 <PAL_BattlePostActionCheck+0x2e>
  801b05:	83 7d d8 00          	cmpl   $0x0,-0x28(%ebp)
  801b09:	75 20                	jne    801b2b <PAL_BattlePostActionCheck+0x179>
  801b0b:	c7 c0 e0 41 86 00    	mov    $0x8641e0,%eax
  801b11:	c7 80 d8 04 00 00 01 	movl   $0x1,0x4d8(%eax)
  801b18:	00 00 00 
  801b1b:	c7 c0 e0 41 86 00    	mov    $0x8641e0,%eax
  801b21:	c7 80 e4 04 00 00 00 	movl   $0x0,0x4e4(%eax)
  801b28:	00 00 00 
  801b2b:	83 7d 08 00          	cmpl   $0x0,0x8(%ebp)
  801b2f:	0f 84 6e 06 00 00    	je     8021a3 <PAL_BattlePostActionCheck+0x7f1>
  801b35:	c7 c0 98 41 86 00    	mov    $0x864198,%eax
  801b3b:	8b 00                	mov    (%eax),%eax
  801b3d:	8b 80 dc 2a 00 00    	mov    0x2adc(%eax),%eax
  801b43:	85 c0                	test   %eax,%eax
  801b45:	0f 85 58 06 00 00    	jne    8021a3 <PAL_BattlePostActionCheck+0x7f1>
  801b4b:	c7 45 e4 00 00 00 00 	movl   $0x0,-0x1c(%ebp)
  801b52:	e9 99 02 00 00       	jmp    801df0 <PAL_BattlePostActionCheck+0x43e>
  801b57:	c7 c0 98 41 86 00    	mov    $0x864198,%eax
  801b5d:	8b 08                	mov    (%eax),%ecx
  801b5f:	8b 55 e4             	mov    -0x1c(%ebp),%edx
  801b62:	89 d0                	mov    %edx,%eax
  801b64:	c1 e0 02             	shl    $0x2,%eax
  801b67:	01 d0                	add    %edx,%eax
  801b69:	01 c0                	add    %eax,%eax
  801b6b:	01 c8                	add    %ecx,%eax
  801b6d:	05 f8 43 00 00       	add    $0x43f8,%eax
  801b72:	0f b7 00             	movzwl (%eax),%eax
  801b75:	66 89 45 d6          	mov    %ax,-0x2a(%ebp)
  801b79:	c7 c0 98 41 86 00    	mov    $0x864198,%eax
  801b7f:	8b 00                	mov    (%eax),%eax
  801b81:	0f b7 55 d6          	movzwl -0x2a(%ebp),%edx
  801b85:	81 c2 10 13 00 00    	add    $0x1310,%edx
  801b8b:	0f b7 54 50 14       	movzwl 0x14(%eax,%edx,2),%edx
  801b90:	c7 c1 e0 41 86 00    	mov    $0x8641e0,%ecx
  801b96:	8b 45 e4             	mov    -0x1c(%ebp),%eax
  801b99:	6b c0 3c             	imul   $0x3c,%eax,%eax
  801b9c:	01 c8                	add    %ecx,%eax
  801b9e:	83 c0 34             	add    $0x34,%eax
  801ba1:	0f b7 00             	movzwl (%eax),%eax
  801ba4:	66 39 c2             	cmp    %ax,%dx
  801ba7:	0f 83 3f 02 00 00    	jae    801dec <PAL_BattlePostActionCheck+0x43a>
  801bad:	c7 c0 98 41 86 00    	mov    $0x864198,%eax
  801bb3:	8b 00                	mov    (%eax),%eax
  801bb5:	0f b7 55 d6          	movzwl -0x2a(%ebp),%edx
  801bb9:	81 c2 10 13 00 00    	add    $0x1310,%edx
  801bbf:	0f b7 44 50 14       	movzwl 0x14(%eax,%edx,2),%eax
  801bc4:	66 85 c0             	test   %ax,%ax
  801bc7:	0f 85 1f 02 00 00    	jne    801dec <PAL_BattlePostActionCheck+0x43a>
  801bcd:	c7 c0 98 41 86 00    	mov    $0x864198,%eax
  801bd3:	8b 00                	mov    (%eax),%eax
  801bd5:	0f b7 55 d6          	movzwl -0x2a(%ebp),%edx
  801bd9:	81 c2 98 13 00 00    	add    $0x1398,%edx
  801bdf:	0f b7 44 50 0c       	movzwl 0xc(%eax,%edx,2),%eax
  801be4:	66 89 45 d6          	mov    %ax,-0x2a(%ebp)
  801be8:	c7 45 e0 00 00 00 00 	movl   $0x0,-0x20(%ebp)
  801bef:	eb 28                	jmp    801c19 <PAL_BattlePostActionCheck+0x267>
  801bf1:	c7 c0 98 41 86 00    	mov    $0x864198,%eax
  801bf7:	8b 08                	mov    (%eax),%ecx
  801bf9:	8b 55 e0             	mov    -0x20(%ebp),%edx
  801bfc:	89 d0                	mov    %edx,%eax
  801bfe:	c1 e0 02             	shl    $0x2,%eax
  801c01:	01 d0                	add    %edx,%eax
  801c03:	01 c0                	add    %eax,%eax
  801c05:	01 c8                	add    %ecx,%eax
  801c07:	05 f8 43 00 00       	add    $0x43f8,%eax
  801c0c:	0f b7 00             	movzwl (%eax),%eax
  801c0f:	66 39 45 d6          	cmp    %ax,-0x2a(%ebp)
  801c13:	74 1d                	je     801c32 <PAL_BattlePostActionCheck+0x280>
  801c15:	83 45 e0 01          	addl   $0x1,-0x20(%ebp)
  801c19:	c7 c0 98 41 86 00    	mov    $0x864198,%eax
  801c1f:	8b 00                	mov    (%eax),%eax
  801c21:	0f b7 80 f6 43 00 00 	movzwl 0x43f6(%eax),%eax
  801c28:	0f b7 c0             	movzwl %ax,%eax
  801c2b:	39 45 e0             	cmp    %eax,-0x20(%ebp)
  801c2e:	7e c1                	jle    801bf1 <PAL_BattlePostActionCheck+0x23f>
  801c30:	eb 01                	jmp    801c33 <PAL_BattlePostActionCheck+0x281>
  801c32:	90                   	nop
  801c33:	c7 c0 98 41 86 00    	mov    $0x864198,%eax
  801c39:	8b 00                	mov    (%eax),%eax
  801c3b:	0f b7 55 d6          	movzwl -0x2a(%ebp),%edx
  801c3f:	81 c2 10 13 00 00    	add    $0x1310,%edx
  801c45:	0f b7 44 50 14       	movzwl 0x14(%eax,%edx,2),%eax
  801c4a:	66 85 c0             	test   %ax,%ax
  801c4d:	0f 84 99 01 00 00    	je     801dec <PAL_BattlePostActionCheck+0x43a>
  801c53:	c7 c0 98 41 86 00    	mov    $0x864198,%eax
  801c59:	8b 08                	mov    (%eax),%ecx
  801c5b:	0f b7 55 d6          	movzwl -0x2a(%ebp),%edx
  801c5f:	89 d0                	mov    %edx,%eax
  801c61:	c1 e0 03             	shl    $0x3,%eax
  801c64:	01 d0                	add    %edx,%eax
  801c66:	01 c0                	add    %eax,%eax
  801c68:	01 c8                	add    %ecx,%eax
  801c6a:	05 84 43 00 00       	add    $0x4384,%eax
  801c6f:	0f b7 00             	movzwl (%eax),%eax
  801c72:	66 85 c0             	test   %ax,%ax
  801c75:	0f 85 71 01 00 00    	jne    801dec <PAL_BattlePostActionCheck+0x43a>
  801c7b:	c7 c0 98 41 86 00    	mov    $0x864198,%eax
  801c81:	8b 08                	mov    (%eax),%ecx
  801c83:	0f b7 55 d6          	movzwl -0x2a(%ebp),%edx
  801c87:	89 d0                	mov    %edx,%eax
  801c89:	c1 e0 03             	shl    $0x3,%eax
  801c8c:	01 d0                	add    %edx,%eax
  801c8e:	01 c0                	add    %eax,%eax
  801c90:	01 c8                	add    %ecx,%eax
  801c92:	05 84 43 00 00       	add    $0x4384,%eax
  801c97:	0f b7 00             	movzwl (%eax),%eax
  801c9a:	66 85 c0             	test   %ax,%ax
  801c9d:	0f 85 49 01 00 00    	jne    801dec <PAL_BattlePostActionCheck+0x43a>
  801ca3:	c7 c0 98 41 86 00    	mov    $0x864198,%eax
  801ca9:	8b 08                	mov    (%eax),%ecx
  801cab:	0f b7 55 d6          	movzwl -0x2a(%ebp),%edx
  801caf:	89 d0                	mov    %edx,%eax
  801cb1:	c1 e0 03             	shl    $0x3,%eax
  801cb4:	01 d0                	add    %edx,%eax
  801cb6:	01 c0                	add    %eax,%eax
  801cb8:	01 c8                	add    %ecx,%eax
  801cba:	05 80 43 00 00       	add    $0x4380,%eax
  801cbf:	0f b7 00             	movzwl (%eax),%eax
  801cc2:	66 85 c0             	test   %ax,%ax
  801cc5:	0f 85 21 01 00 00    	jne    801dec <PAL_BattlePostActionCheck+0x43a>
  801ccb:	c7 c0 98 41 86 00    	mov    $0x864198,%eax
  801cd1:	8b 00                	mov    (%eax),%eax
  801cd3:	0f b7 80 f6 43 00 00 	movzwl 0x43f6(%eax),%eax
  801cda:	0f b7 c0             	movzwl %ax,%eax
  801cdd:	39 45 e0             	cmp    %eax,-0x20(%ebp)
  801ce0:	0f 8f 06 01 00 00    	jg     801dec <PAL_BattlePostActionCheck+0x43a>
  801ce6:	c7 c0 98 41 86 00    	mov    $0x864198,%eax
  801cec:	8b 00                	mov    (%eax),%eax
  801cee:	0f b7 55 d6          	movzwl -0x2a(%ebp),%edx
  801cf2:	81 c2 f0 12 00 00    	add    $0x12f0,%edx
  801cf8:	0f b7 44 50 0c       	movzwl 0xc(%eax,%edx,2),%eax
  801cfd:	66 89 45 d4          	mov    %ax,-0x2c(%ebp)
  801d01:	c7 c0 98 41 86 00    	mov    $0x864198,%eax
  801d07:	8b 08                	mov    (%eax),%ecx
  801d09:	0f b7 55 d4          	movzwl -0x2c(%ebp),%edx
  801d0d:	89 d0                	mov    %edx,%eax
  801d0f:	01 c0                	add    %eax,%eax
  801d11:	01 d0                	add    %edx,%eax
  801d13:	c1 e0 02             	shl    $0x2,%eax
  801d16:	01 c8                	add    %ecx,%eax
  801d18:	05 8c 09 00 00       	add    $0x98c,%eax
  801d1d:	0f b7 00             	movzwl (%eax),%eax
  801d20:	66 85 c0             	test   %ax,%ax
  801d23:	0f 84 c3 00 00 00    	je     801dec <PAL_BattlePostActionCheck+0x43a>
  801d29:	83 ec 04             	sub    $0x4,%esp
  801d2c:	6a 01                	push   $0x1
  801d2e:	6a 00                	push   $0x0
  801d30:	6a 0a                	push   $0xa
  801d32:	e8 40 f4 ff ff       	call   801177 <PAL_BattleDelay>
  801d37:	83 c4 10             	add    $0x10,%esp
  801d3a:	e8 b5 9f 00 00       	call   80bcf4 <PAL_BattleMakeScene>
  801d3f:	c7 c0 80 41 86 00    	mov    $0x864180,%eax
  801d45:	8b 10                	mov    (%eax),%edx
  801d47:	c7 c0 e0 41 86 00    	mov    $0x8641e0,%eax
  801d4d:	8b 80 b4 04 00 00    	mov    0x4b4(%eax),%eax
  801d53:	6a 00                	push   $0x0
  801d55:	52                   	push   %edx
  801d56:	6a 00                	push   $0x0
  801d58:	50                   	push   %eax
  801d59:	e8 0f 44 01 00       	call   81616d <SDL_BlitSurface>
  801d5e:	83 c4 10             	add    $0x10,%esp
  801d61:	83 ec 0c             	sub    $0xc,%esp
  801d64:	6a 00                	push   $0x0
  801d66:	e8 8e 8b 02 00       	call   82a8f9 <VIDEO_UpdateScreen>
  801d6b:	83 c4 10             	add    $0x10,%esp
  801d6e:	c7 c0 e0 41 86 00    	mov    $0x8641e0,%eax
  801d74:	c7 80 dc 04 00 00 ea 	movl   $0x3ea,0x4dc(%eax)
  801d7b:	03 00 00 
  801d7e:	0f b7 4d d6          	movzwl -0x2a(%ebp),%ecx
  801d82:	c7 c0 98 41 86 00    	mov    $0x864198,%eax
  801d88:	8b 30                	mov    (%eax),%esi
  801d8a:	0f b7 55 d4          	movzwl -0x2c(%ebp),%edx
  801d8e:	89 d0                	mov    %edx,%eax
  801d90:	01 c0                	add    %eax,%eax
  801d92:	01 d0                	add    %edx,%eax
  801d94:	c1 e0 02             	shl    $0x2,%eax
  801d97:	01 f0                	add    %esi,%eax
  801d99:	05 8c 09 00 00       	add    $0x98c,%eax
  801d9e:	0f b7 00             	movzwl (%eax),%eax
  801da1:	0f b7 c0             	movzwl %ax,%eax
  801da4:	c7 c2 98 41 86 00    	mov    $0x864198,%edx
  801daa:	8b 3a                	mov    (%edx),%edi
  801dac:	0f b7 75 d4          	movzwl -0x2c(%ebp),%esi
  801db0:	83 ec 08             	sub    $0x8,%esp
  801db3:	51                   	push   %ecx
  801db4:	50                   	push   %eax
  801db5:	e8 79 af 01 00       	call   81cd33 <PAL_RunTriggerScript>
  801dba:	83 c4 10             	add    $0x10,%esp
  801dbd:	89 c2                	mov    %eax,%edx
  801dbf:	89 f0                	mov    %esi,%eax
  801dc1:	01 c0                	add    %eax,%eax
  801dc3:	01 f0                	add    %esi,%eax
  801dc5:	c1 e0 02             	shl    $0x2,%eax
  801dc8:	01 f8                	add    %edi,%eax
  801dca:	05 8c 09 00 00       	add    $0x98c,%eax
  801dcf:	66 89 10             	mov    %dx,(%eax)
  801dd2:	c7 c0 e0 41 86 00    	mov    $0x8641e0,%eax
  801dd8:	c7 80 dc 04 00 00 e8 	movl   $0x3e8,0x4dc(%eax)
  801ddf:	03 00 00 
  801de2:	e8 16 77 02 00       	call   8294fd <PAL_ClearKeyState>
  801de7:	e9 bb 03 00 00       	jmp    8021a7 <PAL_BattlePostActionCheck+0x7f5>
  801dec:	83 45 e4 01          	addl   $0x1,-0x1c(%ebp)
  801df0:	c7 c0 98 41 86 00    	mov    $0x864198,%eax
  801df6:	8b 00                	mov    (%eax),%eax
  801df8:	0f b7 80 f6 43 00 00 	movzwl 0x43f6(%eax),%eax
  801dff:	0f b7 c0             	movzwl %ax,%eax
  801e02:	39 45 e4             	cmp    %eax,-0x1c(%ebp)
  801e05:	0f 8e 4c fd ff ff    	jle    801b57 <PAL_BattlePostActionCheck+0x1a5>
  801e0b:	c7 45 e4 00 00 00 00 	movl   $0x0,-0x1c(%ebp)
  801e12:	e9 71 03 00 00       	jmp    802188 <PAL_BattlePostActionCheck+0x7d6>
  801e17:	c7 c0 98 41 86 00    	mov    $0x864198,%eax
  801e1d:	8b 08                	mov    (%eax),%ecx
  801e1f:	8b 55 e4             	mov    -0x1c(%ebp),%edx
  801e22:	89 d0                	mov    %edx,%eax
  801e24:	c1 e0 02             	shl    $0x2,%eax
  801e27:	01 d0                	add    %edx,%eax
  801e29:	01 c0                	add    %eax,%eax
  801e2b:	01 c8                	add    %ecx,%eax
  801e2d:	05 f8 43 00 00       	add    $0x43f8,%eax
  801e32:	0f b7 00             	movzwl (%eax),%eax
  801e35:	66 89 45 d2          	mov    %ax,-0x2e(%ebp)
  801e39:	c7 c0 98 41 86 00    	mov    $0x864198,%eax
  801e3f:	8b 08                	mov    (%eax),%ecx
  801e41:	0f b7 55 d2          	movzwl -0x2e(%ebp),%edx
  801e45:	89 d0                	mov    %edx,%eax
  801e47:	c1 e0 03             	shl    $0x3,%eax
  801e4a:	01 d0                	add    %edx,%eax
  801e4c:	01 c0                	add    %eax,%eax
  801e4e:	01 c8                	add    %ecx,%eax
  801e50:	05 84 43 00 00       	add    $0x4384,%eax
  801e55:	0f b7 00             	movzwl (%eax),%eax
  801e58:	66 85 c0             	test   %ax,%ax
  801e5b:	0f 85 1c 03 00 00    	jne    80217d <PAL_BattlePostActionCheck+0x7cb>
  801e61:	c7 c0 98 41 86 00    	mov    $0x864198,%eax
  801e67:	8b 08                	mov    (%eax),%ecx
  801e69:	0f b7 55 d2          	movzwl -0x2e(%ebp),%edx
  801e6d:	89 d0                	mov    %edx,%eax
  801e6f:	c1 e0 03             	shl    $0x3,%eax
  801e72:	01 d0                	add    %edx,%eax
  801e74:	01 c0                	add    %eax,%eax
  801e76:	01 c8                	add    %ecx,%eax
  801e78:	05 80 43 00 00       	add    $0x4380,%eax
  801e7d:	0f b7 00             	movzwl (%eax),%eax
  801e80:	66 85 c0             	test   %ax,%ax
  801e83:	0f 85 f4 02 00 00    	jne    80217d <PAL_BattlePostActionCheck+0x7cb>
  801e89:	c7 c0 98 41 86 00    	mov    $0x864198,%eax
  801e8f:	8b 00                	mov    (%eax),%eax
  801e91:	0f b7 55 d2          	movzwl -0x2e(%ebp),%edx
  801e95:	81 c2 10 13 00 00    	add    $0x1310,%edx
  801e9b:	0f b7 54 50 14       	movzwl 0x14(%eax,%edx,2),%edx
  801ea0:	c7 c1 e0 41 86 00    	mov    $0x8641e0,%ecx
  801ea6:	8b 45 e4             	mov    -0x1c(%ebp),%eax
  801ea9:	6b c0 3c             	imul   $0x3c,%eax,%eax
  801eac:	01 c8                	add    %ecx,%eax
  801eae:	83 c0 34             	add    $0x34,%eax
  801eb1:	0f b7 00             	movzwl (%eax),%eax
  801eb4:	66 39 c2             	cmp    %ax,%dx
  801eb7:	0f 83 c7 02 00 00    	jae    802184 <PAL_BattlePostActionCheck+0x7d2>
  801ebd:	c7 c0 98 41 86 00    	mov    $0x864198,%eax
  801ec3:	8b 00                	mov    (%eax),%eax
  801ec5:	0f b7 55 d2          	movzwl -0x2e(%ebp),%edx
  801ec9:	81 c2 10 13 00 00    	add    $0x1310,%edx
  801ecf:	0f b7 44 50 14       	movzwl 0x14(%eax,%edx,2),%eax
  801ed4:	66 85 c0             	test   %ax,%ax
  801ed7:	0f 84 a7 02 00 00    	je     802184 <PAL_BattlePostActionCheck+0x7d2>
  801edd:	0f b7 45 d2          	movzwl -0x2e(%ebp),%eax
  801ee1:	83 ec 0c             	sub    $0xc,%esp
  801ee4:	50                   	push   %eax
  801ee5:	e8 b2 e9 ff ff       	call   80089c <PAL_IsPlayerDying>
  801eea:	83 c4 10             	add    $0x10,%esp
  801eed:	85 c0                	test   %eax,%eax
  801eef:	0f 84 8f 02 00 00    	je     802184 <PAL_BattlePostActionCheck+0x7d2>
  801ef5:	c7 c2 e0 41 86 00    	mov    $0x8641e0,%edx
  801efb:	8b 45 e4             	mov    -0x1c(%ebp),%eax
  801efe:	6b c0 3c             	imul   $0x3c,%eax,%eax
  801f01:	01 d0                	add    %edx,%eax
  801f03:	83 c0 34             	add    $0x34,%eax
  801f06:	0f b7 10             	movzwl (%eax),%edx
  801f09:	c7 c0 98 41 86 00    	mov    $0x864198,%eax
  801f0f:	8b 00                	mov    (%eax),%eax
  801f11:	0f b7 4d d2          	movzwl -0x2e(%ebp),%ecx
  801f15:	81 c1 08 13 00 00    	add    $0x1308,%ecx
  801f1b:	0f b7 44 48 0c       	movzwl 0xc(%eax,%ecx,2),%eax
  801f20:	0f b7 c0             	movzwl %ax,%eax
  801f23:	69 c0 cd cc 00 00    	imul   $0xcccd,%eax,%eax
  801f29:	c1 e8 10             	shr    $0x10,%eax
  801f2c:	66 c1 e8 02          	shr    $0x2,%ax
  801f30:	66 39 c2             	cmp    %ax,%dx
  801f33:	0f 82 4b 02 00 00    	jb     802184 <PAL_BattlePostActionCheck+0x7d2>
  801f39:	c7 c0 98 41 86 00    	mov    $0x864198,%eax
  801f3f:	8b 00                	mov    (%eax),%eax
  801f41:	0f b7 55 d2          	movzwl -0x2e(%ebp),%edx
  801f45:	81 c2 98 13 00 00    	add    $0x1398,%edx
  801f4b:	0f b7 44 50 0c       	movzwl 0xc(%eax,%edx,2),%eax
  801f50:	66 89 45 d0          	mov    %ax,-0x30(%ebp)
  801f54:	c7 c0 98 41 86 00    	mov    $0x864198,%eax
  801f5a:	8b 08                	mov    (%eax),%ecx
  801f5c:	0f b7 55 d0          	movzwl -0x30(%ebp),%edx
  801f60:	89 d0                	mov    %edx,%eax
  801f62:	c1 e0 03             	shl    $0x3,%eax
  801f65:	01 d0                	add    %edx,%eax
  801f67:	01 c0                	add    %eax,%eax
  801f69:	01 c8                	add    %ecx,%eax
  801f6b:	05 84 43 00 00       	add    $0x4384,%eax
  801f70:	0f b7 00             	movzwl (%eax),%eax
  801f73:	66 85 c0             	test   %ax,%ax
  801f76:	0f 85 04 02 00 00    	jne    802180 <PAL_BattlePostActionCheck+0x7ce>
  801f7c:	c7 c0 98 41 86 00    	mov    $0x864198,%eax
  801f82:	8b 08                	mov    (%eax),%ecx
  801f84:	0f b7 55 d0          	movzwl -0x30(%ebp),%edx
  801f88:	89 d0                	mov    %edx,%eax
  801f8a:	c1 e0 03             	shl    $0x3,%eax
  801f8d:	01 d0                	add    %edx,%eax
  801f8f:	01 c0                	add    %eax,%eax
  801f91:	01 c8                	add    %ecx,%eax
  801f93:	05 84 43 00 00       	add    $0x4384,%eax
  801f98:	0f b7 00             	movzwl (%eax),%eax
  801f9b:	66 85 c0             	test   %ax,%ax
  801f9e:	0f 85 dc 01 00 00    	jne    802180 <PAL_BattlePostActionCheck+0x7ce>
  801fa4:	c7 c0 98 41 86 00    	mov    $0x864198,%eax
  801faa:	8b 08                	mov    (%eax),%ecx
  801fac:	0f b7 55 d0          	movzwl -0x30(%ebp),%edx
  801fb0:	89 d0                	mov    %edx,%eax
  801fb2:	c1 e0 03             	shl    $0x3,%eax
  801fb5:	01 d0                	add    %edx,%eax
  801fb7:	01 c0                	add    %eax,%eax
  801fb9:	01 c8                	add    %ecx,%eax
  801fbb:	05 80 43 00 00       	add    $0x4380,%eax
  801fc0:	0f b7 00             	movzwl (%eax),%eax
  801fc3:	66 85 c0             	test   %ax,%ax
  801fc6:	0f 85 b4 01 00 00    	jne    802180 <PAL_BattlePostActionCheck+0x7ce>
  801fcc:	c7 c0 98 41 86 00    	mov    $0x864198,%eax
  801fd2:	8b 00                	mov    (%eax),%eax
  801fd4:	0f b7 55 d2          	movzwl -0x2e(%ebp),%edx
  801fd8:	81 c2 f0 12 00 00    	add    $0x12f0,%edx
  801fde:	0f b7 44 50 0c       	movzwl 0xc(%eax,%edx,2),%eax
  801fe3:	66 89 45 ce          	mov    %ax,-0x32(%ebp)
  801fe7:	c7 c0 98 41 86 00    	mov    $0x864198,%eax
  801fed:	8b 00                	mov    (%eax),%eax
  801fef:	0f b7 55 d2          	movzwl -0x2e(%ebp),%edx
  801ff3:	81 c2 98 14 00 00    	add    $0x1498,%edx
  801ff9:	0f b7 44 50 10       	movzwl 0x10(%eax,%edx,2),%eax
  801ffe:	0f b7 c0             	movzwl %ax,%eax
  802001:	83 ec 08             	sub    $0x8,%esp
  802004:	6a 00                	push   $0x0
  802006:	50                   	push   %eax
  802007:	e8 7d ea 00 00       	call   810a89 <SOUND_PlayChannel>
  80200c:	83 c4 10             	add    $0x10,%esp
  80200f:	c7 45 e0 00 00 00 00 	movl   $0x0,-0x20(%ebp)
  802016:	eb 28                	jmp    802040 <PAL_BattlePostActionCheck+0x68e>
  802018:	c7 c0 98 41 86 00    	mov    $0x864198,%eax
  80201e:	8b 08                	mov    (%eax),%ecx
  802020:	8b 55 e0             	mov    -0x20(%ebp),%edx
  802023:	89 d0                	mov    %edx,%eax
  802025:	c1 e0 02             	shl    $0x2,%eax
  802028:	01 d0                	add    %edx,%eax
  80202a:	01 c0                	add    %eax,%eax
  80202c:	01 c8                	add    %ecx,%eax
  80202e:	05 f8 43 00 00       	add    $0x43f8,%eax
  802033:	0f b7 00             	movzwl (%eax),%eax
  802036:	66 39 45 d0          	cmp    %ax,-0x30(%ebp)
  80203a:	74 1d                	je     802059 <PAL_BattlePostActionCheck+0x6a7>
  80203c:	83 45 e0 01          	addl   $0x1,-0x20(%ebp)
  802040:	c7 c0 98 41 86 00    	mov    $0x864198,%eax
  802046:	8b 00                	mov    (%eax),%eax
  802048:	0f b7 80 f6 43 00 00 	movzwl 0x43f6(%eax),%eax
  80204f:	0f b7 c0             	movzwl %ax,%eax
  802052:	39 45 e0             	cmp    %eax,-0x20(%ebp)
  802055:	7e c1                	jle    802018 <PAL_BattlePostActionCheck+0x666>
  802057:	eb 01                	jmp    80205a <PAL_BattlePostActionCheck+0x6a8>
  802059:	90                   	nop
  80205a:	c7 c0 98 41 86 00    	mov    $0x864198,%eax
  802060:	8b 00                	mov    (%eax),%eax
  802062:	0f b7 80 f6 43 00 00 	movzwl 0x43f6(%eax),%eax
  802069:	0f b7 c0             	movzwl %ax,%eax
  80206c:	39 45 e0             	cmp    %eax,-0x20(%ebp)
  80206f:	0f 8f 0e 01 00 00    	jg     802183 <PAL_BattlePostActionCheck+0x7d1>
  802075:	c7 c0 98 41 86 00    	mov    $0x864198,%eax
  80207b:	8b 00                	mov    (%eax),%eax
  80207d:	0f b7 55 d0          	movzwl -0x30(%ebp),%edx
  802081:	81 c2 10 13 00 00    	add    $0x1310,%edx
  802087:	0f b7 44 50 14       	movzwl 0x14(%eax,%edx,2),%eax
  80208c:	66 85 c0             	test   %ax,%ax
  80208f:	0f 84 ee 00 00 00    	je     802183 <PAL_BattlePostActionCheck+0x7d1>
  802095:	c7 c0 98 41 86 00    	mov    $0x864198,%eax
  80209b:	8b 08                	mov    (%eax),%ecx
  80209d:	0f b7 55 ce          	movzwl -0x32(%ebp),%edx
  8020a1:	89 d0                	mov    %edx,%eax
  8020a3:	01 c0                	add    %eax,%eax
  8020a5:	01 d0                	add    %edx,%eax
  8020a7:	c1 e0 02             	shl    $0x2,%eax
  8020aa:	01 c8                	add    %ecx,%eax
  8020ac:	05 8e 09 00 00       	add    $0x98e,%eax
  8020b1:	0f b7 00             	movzwl (%eax),%eax
  8020b4:	66 85 c0             	test   %ax,%ax
  8020b7:	0f 84 e9 00 00 00    	je     8021a6 <PAL_BattlePostActionCheck+0x7f4>
  8020bd:	83 ec 04             	sub    $0x4,%esp
  8020c0:	6a 01                	push   $0x1
  8020c2:	6a 00                	push   $0x0
  8020c4:	6a 0a                	push   $0xa
  8020c6:	e8 ac f0 ff ff       	call   801177 <PAL_BattleDelay>
  8020cb:	83 c4 10             	add    $0x10,%esp
  8020ce:	e8 21 9c 00 00       	call   80bcf4 <PAL_BattleMakeScene>
  8020d3:	c7 c0 80 41 86 00    	mov    $0x864180,%eax
  8020d9:	8b 10                	mov    (%eax),%edx
  8020db:	c7 c0 e0 41 86 00    	mov    $0x8641e0,%eax
  8020e1:	8b 80 b4 04 00 00    	mov    0x4b4(%eax),%eax
  8020e7:	6a 00                	push   $0x0
  8020e9:	52                   	push   %edx
  8020ea:	6a 00                	push   $0x0
  8020ec:	50                   	push   %eax
  8020ed:	e8 7b 40 01 00       	call   81616d <SDL_BlitSurface>
  8020f2:	83 c4 10             	add    $0x10,%esp
  8020f5:	83 ec 0c             	sub    $0xc,%esp
  8020f8:	6a 00                	push   $0x0
  8020fa:	e8 fa 87 02 00       	call   82a8f9 <VIDEO_UpdateScreen>
  8020ff:	83 c4 10             	add    $0x10,%esp
  802102:	c7 c0 e0 41 86 00    	mov    $0x8641e0,%eax
  802108:	c7 80 dc 04 00 00 ea 	movl   $0x3ea,0x4dc(%eax)
  80210f:	03 00 00 
  802112:	0f b7 4d d2          	movzwl -0x2e(%ebp),%ecx
  802116:	c7 c0 98 41 86 00    	mov    $0x864198,%eax
  80211c:	8b 30                	mov    (%eax),%esi
  80211e:	0f b7 55 ce          	movzwl -0x32(%ebp),%edx
  802122:	89 d0                	mov    %edx,%eax
  802124:	01 c0                	add    %eax,%eax
  802126:	01 d0                	add    %edx,%eax
  802128:	c1 e0 02             	shl    $0x2,%eax
  80212b:	01 f0                	add    %esi,%eax
  80212d:	05 8e 09 00 00       	add    $0x98e,%eax
  802132:	0f b7 00             	movzwl (%eax),%eax
  802135:	0f b7 c0             	movzwl %ax,%eax
  802138:	c7 c2 98 41 86 00    	mov    $0x864198,%edx
  80213e:	8b 3a                	mov    (%edx),%edi
  802140:	0f b7 75 ce          	movzwl -0x32(%ebp),%esi
  802144:	83 ec 08             	sub    $0x8,%esp
  802147:	51                   	push   %ecx
  802148:	50                   	push   %eax
  802149:	e8 e5 ab 01 00       	call   81cd33 <PAL_RunTriggerScript>
  80214e:	83 c4 10             	add    $0x10,%esp
  802151:	89 c2                	mov    %eax,%edx
  802153:	89 f0                	mov    %esi,%eax
  802155:	01 c0                	add    %eax,%eax
  802157:	01 f0                	add    %esi,%eax
  802159:	c1 e0 02             	shl    $0x2,%eax
  80215c:	01 f8                	add    %edi,%eax
  80215e:	05 8e 09 00 00       	add    $0x98e,%eax
  802163:	66 89 10             	mov    %dx,(%eax)
  802166:	c7 c0 e0 41 86 00    	mov    $0x8641e0,%eax
  80216c:	c7 80 dc 04 00 00 e8 	movl   $0x3e8,0x4dc(%eax)
  802173:	03 00 00 
  802176:	e8 82 73 02 00       	call   8294fd <PAL_ClearKeyState>
  80217b:	eb 29                	jmp    8021a6 <PAL_BattlePostActionCheck+0x7f4>
  80217d:	90                   	nop
  80217e:	eb 04                	jmp    802184 <PAL_BattlePostActionCheck+0x7d2>
  802180:	90                   	nop
  802181:	eb 01                	jmp    802184 <PAL_BattlePostActionCheck+0x7d2>
  802183:	90                   	nop
  802184:	83 45 e4 01          	addl   $0x1,-0x1c(%ebp)
  802188:	c7 c0 98 41 86 00    	mov    $0x864198,%eax
  80218e:	8b 00                	mov    (%eax),%eax
  802190:	0f b7 80 f6 43 00 00 	movzwl 0x43f6(%eax),%eax
  802197:	0f b7 c0             	movzwl %ax,%eax
  80219a:	39 45 e4             	cmp    %eax,-0x1c(%ebp)
  80219d:	0f 8e 74 fc ff ff    	jle    801e17 <PAL_BattlePostActionCheck+0x465>
  8021a3:	90                   	nop
  8021a4:	eb 01                	jmp    8021a7 <PAL_BattlePostActionCheck+0x7f5>
  8021a6:	90                   	nop
  8021a7:	83 7d dc 00          	cmpl   $0x0,-0x24(%ebp)
  8021ab:	74 0f                	je     8021bc <PAL_BattlePostActionCheck+0x80a>
  8021ad:	e8 8d a5 00 00       	call   80c73f <PAL_BattleBackupScene>
  8021b2:	e8 3d 9b 00 00       	call   80bcf4 <PAL_BattleMakeScene>
  8021b7:	e8 be a5 00 00       	call   80c77a <PAL_BattleFadeScene>
  8021bc:	c7 c0 e0 41 86 00    	mov    $0x8641e0,%eax
  8021c2:	8b 80 c0 04 00 00    	mov    0x4c0(%eax),%eax
  8021c8:	85 c0                	test   %eax,%eax
  8021ca:	74 5c                	je     802228 <PAL_BattlePostActionCheck+0x876>
  8021cc:	e8 60 00 00 00       	call   802231 <PAL_BattleUpdateFighters>
  8021d1:	83 ec 04             	sub    $0x4,%esp
  8021d4:	6a 00                	push   $0x0
  8021d6:	6a 00                	push   $0x0
  8021d8:	6a 01                	push   $0x1
  8021da:	e8 98 ef ff ff       	call   801177 <PAL_BattleDelay>
  8021df:	83 c4 10             	add    $0x10,%esp
  8021e2:	c7 c0 e0 41 86 00    	mov    $0x8641e0,%eax
  8021e8:	8b 80 c0 04 00 00    	mov    0x4c0(%eax),%eax
  8021ee:	83 ec 0c             	sub    $0xc,%esp
  8021f1:	50                   	push   %eax
  8021f2:	e8 b9 f7 02 00       	call   8319b0 <free>
  8021f7:	83 c4 10             	add    $0x10,%esp
  8021fa:	c7 c0 e0 41 86 00    	mov    $0x8641e0,%eax
  802200:	c7 80 c0 04 00 00 00 	movl   $0x0,0x4c0(%eax)
  802207:	00 00 00 
  80220a:	c7 c0 e0 41 86 00    	mov    $0x8641e0,%eax
  802210:	66 c7 80 bc 04 00 00 	movw   $0x0,0x4bc(%eax)
  802217:	00 00 
  802219:	e8 21 a5 00 00       	call   80c73f <PAL_BattleBackupScene>
  80221e:	e8 d1 9a 00 00       	call   80bcf4 <PAL_BattleMakeScene>
  802223:	e8 52 a5 00 00       	call   80c77a <PAL_BattleFadeScene>
  802228:	90                   	nop
  802229:	8d 65 f4             	lea    -0xc(%ebp),%esp
  80222c:	5b                   	pop    %ebx
  80222d:	5e                   	pop    %esi
  80222e:	5f                   	pop    %edi
  80222f:	5d                   	pop    %ebp
  802230:	c3                   	ret    

00802231 <PAL_BattleUpdateFighters>:
  802231:	55                   	push   %ebp
  802232:	89 e5                	mov    %esp,%ebp
  802234:	56                   	push   %esi
  802235:	53                   	push   %ebx
  802236:	83 ec 10             	sub    $0x10,%esp
  802239:	e8 d9 df ff ff       	call   800217 <__x86.get_pc_thunk.bx>
  80223e:	81 c3 c2 9d 04 00    	add    $0x49dc2,%ebx
  802244:	c7 45 f4 00 00 00 00 	movl   $0x0,-0xc(%ebp)
  80224b:	e9 d3 01 00 00       	jmp    802423 <PAL_BattleUpdateFighters+0x1f2>
  802250:	c7 c0 98 41 86 00    	mov    $0x864198,%eax
  802256:	8b 08                	mov    (%eax),%ecx
  802258:	8b 55 f4             	mov    -0xc(%ebp),%edx
  80225b:	89 d0                	mov    %edx,%eax
  80225d:	c1 e0 02             	shl    $0x2,%eax
  802260:	01 d0                	add    %edx,%eax
  802262:	01 c0                	add    %eax,%eax
  802264:	01 c8                	add    %ecx,%eax
  802266:	05 f8 43 00 00       	add    $0x43f8,%eax
  80226b:	0f b7 00             	movzwl (%eax),%eax
  80226e:	66 89 45 f2          	mov    %ax,-0xe(%ebp)
  802272:	c7 c2 e0 41 86 00    	mov    $0x8641e0,%edx
  802278:	8b 45 f4             	mov    -0xc(%ebp),%eax
  80227b:	6b c0 3c             	imul   $0x3c,%eax,%eax
  80227e:	01 d0                	add    %edx,%eax
  802280:	83 c0 18             	add    $0x18,%eax
  802283:	8b 00                	mov    (%eax),%eax
  802285:	c7 c1 e0 41 86 00    	mov    $0x8641e0,%ecx
  80228b:	8b 55 f4             	mov    -0xc(%ebp),%edx
  80228e:	6b d2 3c             	imul   $0x3c,%edx,%edx
  802291:	01 ca                	add    %ecx,%edx
  802293:	83 c2 14             	add    $0x14,%edx
  802296:	89 02                	mov    %eax,(%edx)
  802298:	c7 c2 e0 41 86 00    	mov    $0x8641e0,%edx
  80229e:	8b 45 f4             	mov    -0xc(%ebp),%eax
  8022a1:	6b c0 3c             	imul   $0x3c,%eax,%eax
  8022a4:	01 d0                	add    %edx,%eax
  8022a6:	c7 00 00 00 00 00    	movl   $0x0,(%eax)
  8022ac:	c7 c0 98 41 86 00    	mov    $0x864198,%eax
  8022b2:	8b 00                	mov    (%eax),%eax
  8022b4:	0f b7 55 f2          	movzwl -0xe(%ebp),%edx
  8022b8:	81 c2 10 13 00 00    	add    $0x1310,%edx
  8022be:	0f b7 44 50 14       	movzwl 0x14(%eax,%edx,2),%eax
  8022c3:	66 85 c0             	test   %ax,%ax
  8022c6:	75 5a                	jne    802322 <PAL_BattleUpdateFighters+0xf1>
  8022c8:	c7 c0 98 41 86 00    	mov    $0x864198,%eax
  8022ce:	8b 08                	mov    (%eax),%ecx
  8022d0:	0f b7 55 f2          	movzwl -0xe(%ebp),%edx
  8022d4:	89 d0                	mov    %edx,%eax
  8022d6:	c1 e0 03             	shl    $0x3,%eax
  8022d9:	01 d0                	add    %edx,%eax
  8022db:	01 c0                	add    %eax,%eax
  8022dd:	01 c8                	add    %ecx,%eax
  8022df:	05 88 43 00 00       	add    $0x4388,%eax
  8022e4:	0f b7 00             	movzwl (%eax),%eax
  8022e7:	66 85 c0             	test   %ax,%ax
  8022ea:	75 1b                	jne    802307 <PAL_BattleUpdateFighters+0xd6>
  8022ec:	c7 c2 e0 41 86 00    	mov    $0x8641e0,%edx
  8022f2:	8b 45 f4             	mov    -0xc(%ebp),%eax
  8022f5:	6b c0 3c             	imul   $0x3c,%eax,%eax
  8022f8:	01 d0                	add    %edx,%eax
  8022fa:	83 c0 1c             	add    $0x1c,%eax
  8022fd:	66 c7 00 02 00       	movw   $0x2,(%eax)
  802302:	e9 18 01 00 00       	jmp    80241f <PAL_BattleUpdateFighters+0x1ee>
  802307:	c7 c2 e0 41 86 00    	mov    $0x8641e0,%edx
  80230d:	8b 45 f4             	mov    -0xc(%ebp),%eax
  802310:	6b c0 3c             	imul   $0x3c,%eax,%eax
  802313:	01 d0                	add    %edx,%eax
  802315:	83 c0 1c             	add    $0x1c,%eax
  802318:	66 c7 00 00 00       	movw   $0x0,(%eax)
  80231d:	e9 fd 00 00 00       	jmp    80241f <PAL_BattleUpdateFighters+0x1ee>
  802322:	c7 c0 98 41 86 00    	mov    $0x864198,%eax
  802328:	8b 08                	mov    (%eax),%ecx
  80232a:	0f b7 55 f2          	movzwl -0xe(%ebp),%edx
  80232e:	89 d0                	mov    %edx,%eax
  802330:	c1 e0 03             	shl    $0x3,%eax
  802333:	01 d0                	add    %edx,%eax
  802335:	01 c0                	add    %eax,%eax
  802337:	01 c8                	add    %ecx,%eax
  802339:	05 84 43 00 00       	add    $0x4384,%eax
  80233e:	0f b7 00             	movzwl (%eax),%eax
  802341:	66 85 c0             	test   %ax,%ax
  802344:	75 11                	jne    802357 <PAL_BattleUpdateFighters+0x126>
  802346:	0f b7 45 f2          	movzwl -0xe(%ebp),%eax
  80234a:	50                   	push   %eax
  80234b:	e8 4c e5 ff ff       	call   80089c <PAL_IsPlayerDying>
  802350:	83 c4 04             	add    $0x4,%esp
  802353:	85 c0                	test   %eax,%eax
  802355:	74 1b                	je     802372 <PAL_BattleUpdateFighters+0x141>
  802357:	c7 c2 e0 41 86 00    	mov    $0x8641e0,%edx
  80235d:	8b 45 f4             	mov    -0xc(%ebp),%eax
  802360:	6b c0 3c             	imul   $0x3c,%eax,%eax
  802363:	01 d0                	add    %edx,%eax
  802365:	83 c0 1c             	add    $0x1c,%eax
  802368:	66 c7 00 01 00       	movw   $0x1,(%eax)
  80236d:	e9 ad 00 00 00       	jmp    80241f <PAL_BattleUpdateFighters+0x1ee>
  802372:	c7 c2 e0 41 86 00    	mov    $0x8641e0,%edx
  802378:	8b 45 f4             	mov    -0xc(%ebp),%eax
  80237b:	6b c0 3c             	imul   $0x3c,%eax,%eax
  80237e:	01 d0                	add    %edx,%eax
  802380:	83 c0 20             	add    $0x20,%eax
  802383:	8b 00                	mov    (%eax),%eax
  802385:	83 f8 02             	cmp    $0x2,%eax
  802388:	75 40                	jne    8023ca <PAL_BattleUpdateFighters+0x199>
  80238a:	c7 c2 e0 41 86 00    	mov    $0x8641e0,%edx
  802390:	8b 45 f4             	mov    -0xc(%ebp),%eax
  802393:	6b c0 3c             	imul   $0x3c,%eax,%eax
  802396:	01 d0                	add    %edx,%eax
  802398:	83 c0 24             	add    $0x24,%eax
  80239b:	8b 00                	mov    (%eax),%eax
  80239d:	83 f8 03             	cmp    $0x3,%eax
  8023a0:	75 28                	jne    8023ca <PAL_BattleUpdateFighters+0x199>
  8023a2:	c7 c0 e0 41 86 00    	mov    $0x8641e0,%eax
  8023a8:	8b 80 d8 04 00 00    	mov    0x4d8(%eax),%eax
  8023ae:	85 c0                	test   %eax,%eax
  8023b0:	75 18                	jne    8023ca <PAL_BattleUpdateFighters+0x199>
  8023b2:	c7 c2 e0 41 86 00    	mov    $0x8641e0,%edx
  8023b8:	8b 45 f4             	mov    -0xc(%ebp),%eax
  8023bb:	6b c0 3c             	imul   $0x3c,%eax,%eax
  8023be:	01 d0                	add    %edx,%eax
  8023c0:	83 c0 1c             	add    $0x1c,%eax
  8023c3:	66 c7 00 05 00       	movw   $0x5,(%eax)
  8023c8:	eb 55                	jmp    80241f <PAL_BattleUpdateFighters+0x1ee>
  8023ca:	c7 c2 e0 41 86 00    	mov    $0x8641e0,%edx
  8023d0:	8b 45 f4             	mov    -0xc(%ebp),%eax
  8023d3:	6b c0 3c             	imul   $0x3c,%eax,%eax
  8023d6:	01 d0                	add    %edx,%eax
  8023d8:	83 c0 30             	add    $0x30,%eax
  8023db:	8b 00                	mov    (%eax),%eax
  8023dd:	85 c0                	test   %eax,%eax
  8023df:	74 28                	je     802409 <PAL_BattleUpdateFighters+0x1d8>
  8023e1:	c7 c0 e0 41 86 00    	mov    $0x8641e0,%eax
  8023e7:	8b 80 d8 04 00 00    	mov    0x4d8(%eax),%eax
  8023ed:	85 c0                	test   %eax,%eax
  8023ef:	75 18                	jne    802409 <PAL_BattleUpdateFighters+0x1d8>
  8023f1:	c7 c2 e0 41 86 00    	mov    $0x8641e0,%edx
  8023f7:	8b 45 f4             	mov    -0xc(%ebp),%eax
  8023fa:	6b c0 3c             	imul   $0x3c,%eax,%eax
  8023fd:	01 d0                	add    %edx,%eax
  8023ff:	83 c0 1c             	add    $0x1c,%eax
  802402:	66 c7 00 03 00       	movw   $0x3,(%eax)
  802407:	eb 16                	jmp    80241f <PAL_BattleUpdateFighters+0x1ee>
  802409:	c7 c2 e0 41 86 00    	mov    $0x8641e0,%edx
  80240f:	8b 45 f4             	mov    -0xc(%ebp),%eax
  802412:	6b c0 3c             	imul   $0x3c,%eax,%eax
  802415:	01 d0                	add    %edx,%eax
  802417:	83 c0 1c             	add    $0x1c,%eax
  80241a:	66 c7 00 00 00       	movw   $0x0,(%eax)
  80241f:	83 45 f4 01          	addl   $0x1,-0xc(%ebp)
  802423:	c7 c0 98 41 86 00    	mov    $0x864198,%eax
  802429:	8b 00                	mov    (%eax),%eax
  80242b:	0f b7 80 f6 43 00 00 	movzwl 0x43f6(%eax),%eax
  802432:	0f b7 c0             	movzwl %ax,%eax
  802435:	39 45 f4             	cmp    %eax,-0xc(%ebp)
  802438:	0f 8e 12 fe ff ff    	jle    802250 <PAL_BattleUpdateFighters+0x1f>
  80243e:	c7 45 f4 00 00 00 00 	movl   $0x0,-0xc(%ebp)
  802445:	e9 1b 02 00 00       	jmp    802665 <PAL_BattleUpdateFighters+0x434>
  80244a:	c7 c2 e0 41 86 00    	mov    $0x8641e0,%edx
  802450:	8b 45 f4             	mov    -0xc(%ebp),%eax
  802453:	69 c0 cc 00 00 00    	imul   $0xcc,%eax,%eax
  802459:	01 d0                	add    %edx,%eax
  80245b:	05 b4 00 00 00       	add    $0xb4,%eax
  802460:	0f b7 00             	movzwl (%eax),%eax
  802463:	66 85 c0             	test   %ax,%ax
  802466:	0f 84 f4 01 00 00    	je     802660 <PAL_BattleUpdateFighters+0x42f>
  80246c:	c7 c2 e0 41 86 00    	mov    $0x8641e0,%edx
  802472:	8b 45 f4             	mov    -0xc(%ebp),%eax
  802475:	69 c0 cc 00 00 00    	imul   $0xcc,%eax,%eax
  80247b:	01 d0                	add    %edx,%eax
  80247d:	05 5c 01 00 00       	add    $0x15c,%eax
  802482:	8b 00                	mov    (%eax),%eax
  802484:	c7 c1 e0 41 86 00    	mov    $0x8641e0,%ecx
  80248a:	8b 55 f4             	mov    -0xc(%ebp),%edx
  80248d:	69 d2 cc 00 00 00    	imul   $0xcc,%edx,%edx
  802493:	01 ca                	add    %ecx,%edx
  802495:	81 c2 58 01 00 00    	add    $0x158,%edx
  80249b:	89 02                	mov    %eax,(%edx)
  80249d:	c7 c2 e0 41 86 00    	mov    $0x8641e0,%edx
  8024a3:	8b 45 f4             	mov    -0xc(%ebp),%eax
  8024a6:	69 c0 cc 00 00 00    	imul   $0xcc,%eax,%eax
  8024ac:	01 d0                	add    %edx,%eax
  8024ae:	05 7c 01 00 00       	add    $0x17c,%eax
  8024b3:	c7 00 00 00 00 00    	movl   $0x0,(%eax)
  8024b9:	c7 c2 e0 41 86 00    	mov    $0x8641e0,%edx
  8024bf:	8b 45 f4             	mov    -0xc(%ebp),%eax
  8024c2:	69 c0 cc 00 00 00    	imul   $0xcc,%eax,%eax
  8024c8:	01 d0                	add    %edx,%eax
  8024ca:	05 00 01 00 00       	add    $0x100,%eax
  8024cf:	0f b7 00             	movzwl (%eax),%eax
  8024d2:	66 85 c0             	test   %ax,%ax
  8024d5:	75 1e                	jne    8024f5 <PAL_BattleUpdateFighters+0x2c4>
  8024d7:	c7 c2 e0 41 86 00    	mov    $0x8641e0,%edx
  8024dd:	8b 45 f4             	mov    -0xc(%ebp),%eax
  8024e0:	69 c0 cc 00 00 00    	imul   $0xcc,%eax,%eax
  8024e6:	01 d0                	add    %edx,%eax
  8024e8:	05 00 01 00 00       	add    $0x100,%eax
  8024ed:	0f b7 00             	movzwl (%eax),%eax
  8024f0:	66 85 c0             	test   %ax,%ax
  8024f3:	74 20                	je     802515 <PAL_BattleUpdateFighters+0x2e4>
  8024f5:	c7 c2 e0 41 86 00    	mov    $0x8641e0,%edx
  8024fb:	8b 45 f4             	mov    -0xc(%ebp),%eax
  8024fe:	69 c0 cc 00 00 00    	imul   $0xcc,%eax,%eax
  802504:	01 d0                	add    %edx,%eax
  802506:	05 60 01 00 00       	add    $0x160,%eax
  80250b:	66 c7 00 00 00       	movw   $0x0,(%eax)
  802510:	e9 4c 01 00 00       	jmp    802661 <PAL_BattleUpdateFighters+0x430>
  802515:	c7 c2 e0 41 86 00    	mov    $0x8641e0,%edx
  80251b:	8b 45 f4             	mov    -0xc(%ebp),%eax
  80251e:	69 c0 cc 00 00 00    	imul   $0xcc,%eax,%eax
  802524:	01 d0                	add    %edx,%eax
  802526:	05 bc 00 00 00       	add    $0xbc,%eax
  80252b:	0f b7 00             	movzwl (%eax),%eax
  80252e:	8d 50 ff             	lea    -0x1(%eax),%edx
  802531:	c7 c1 e0 41 86 00    	mov    $0x8641e0,%ecx
  802537:	8b 45 f4             	mov    -0xc(%ebp),%eax
  80253a:	69 c0 cc 00 00 00    	imul   $0xcc,%eax,%eax
  802540:	01 c8                	add    %ecx,%eax
  802542:	05 bc 00 00 00       	add    $0xbc,%eax
  802547:	66 89 10             	mov    %dx,(%eax)
  80254a:	c7 c2 e0 41 86 00    	mov    $0x8641e0,%edx
  802550:	8b 45 f4             	mov    -0xc(%ebp),%eax
  802553:	69 c0 cc 00 00 00    	imul   $0xcc,%eax,%eax
  802559:	01 d0                	add    %edx,%eax
  80255b:	05 bc 00 00 00       	add    $0xbc,%eax
  802560:	0f b7 00             	movzwl (%eax),%eax
  802563:	66 85 c0             	test   %ax,%ax
  802566:	0f 85 a0 00 00 00    	jne    80260c <PAL_BattleUpdateFighters+0x3db>
  80256c:	c7 c2 e0 41 86 00    	mov    $0x8641e0,%edx
  802572:	8b 45 f4             	mov    -0xc(%ebp),%eax
  802575:	69 c0 cc 00 00 00    	imul   $0xcc,%eax,%eax
  80257b:	01 d0                	add    %edx,%eax
  80257d:	05 60 01 00 00       	add    $0x160,%eax
  802582:	0f b7 00             	movzwl (%eax),%eax
  802585:	8d 50 01             	lea    0x1(%eax),%edx
  802588:	c7 c1 e0 41 86 00    	mov    $0x8641e0,%ecx
  80258e:	8b 45 f4             	mov    -0xc(%ebp),%eax
  802591:	69 c0 cc 00 00 00    	imul   $0xcc,%eax,%eax
  802597:	01 c8                	add    %ecx,%eax
  802599:	05 60 01 00 00       	add    $0x160,%eax
  80259e:	66 89 10             	mov    %dx,(%eax)
  8025a1:	c7 c0 98 41 86 00    	mov    $0x864198,%eax
  8025a7:	8b 00                	mov    (%eax),%eax
  8025a9:	8b 88 b8 25 00 00    	mov    0x25b8(%eax),%ecx
  8025af:	c7 c0 98 41 86 00    	mov    $0x864198,%eax
  8025b5:	8b 30                	mov    (%eax),%esi
  8025b7:	c7 c2 e0 41 86 00    	mov    $0x8641e0,%edx
  8025bd:	8b 45 f4             	mov    -0xc(%ebp),%eax
  8025c0:	69 c0 cc 00 00 00    	imul   $0xcc,%eax,%eax
  8025c6:	01 d0                	add    %edx,%eax
  8025c8:	05 b4 00 00 00       	add    $0xb4,%eax
  8025cd:	0f b7 00             	movzwl (%eax),%eax
  8025d0:	0f b7 d0             	movzwl %ax,%edx
  8025d3:	89 d0                	mov    %edx,%eax
  8025d5:	01 c0                	add    %eax,%eax
  8025d7:	01 d0                	add    %edx,%eax
  8025d9:	c1 e0 02             	shl    $0x2,%eax
  8025dc:	01 f0                	add    %esi,%eax
  8025de:	05 88 09 00 00       	add    $0x988,%eax
  8025e3:	0f b7 00             	movzwl (%eax),%eax
  8025e6:	0f b7 c0             	movzwl %ax,%eax
  8025e9:	6b c0 46             	imul   $0x46,%eax,%eax
  8025ec:	01 c8                	add    %ecx,%eax
  8025ee:	0f b7 40 06          	movzwl 0x6(%eax),%eax
  8025f2:	c7 c1 e0 41 86 00    	mov    $0x8641e0,%ecx
  8025f8:	8b 55 f4             	mov    -0xc(%ebp),%edx
  8025fb:	69 d2 cc 00 00 00    	imul   $0xcc,%edx,%edx
  802601:	01 ca                	add    %ecx,%edx
  802603:	81 c2 bc 00 00 00    	add    $0xbc,%edx
  802609:	66 89 02             	mov    %ax,(%edx)
  80260c:	c7 c2 e0 41 86 00    	mov    $0x8641e0,%edx
  802612:	8b 45 f4             	mov    -0xc(%ebp),%eax
  802615:	69 c0 cc 00 00 00    	imul   $0xcc,%eax,%eax
  80261b:	01 d0                	add    %edx,%eax
  80261d:	05 60 01 00 00       	add    $0x160,%eax
  802622:	0f b7 10             	movzwl (%eax),%edx
  802625:	c7 c1 e0 41 86 00    	mov    $0x8641e0,%ecx
  80262b:	8b 45 f4             	mov    -0xc(%ebp),%eax
  80262e:	69 c0 cc 00 00 00    	imul   $0xcc,%eax,%eax
  802634:	01 c8                	add    %ecx,%eax
  802636:	05 b6 00 00 00       	add    $0xb6,%eax
  80263b:	0f b7 00             	movzwl (%eax),%eax
  80263e:	66 39 c2             	cmp    %ax,%dx
  802641:	72 1e                	jb     802661 <PAL_BattleUpdateFighters+0x430>
  802643:	c7 c2 e0 41 86 00    	mov    $0x8641e0,%edx
  802649:	8b 45 f4             	mov    -0xc(%ebp),%eax
  80264c:	69 c0 cc 00 00 00    	imul   $0xcc,%eax,%eax
  802652:	01 d0                	add    %edx,%eax
  802654:	05 60 01 00 00       	add    $0x160,%eax
  802659:	66 c7 00 00 00       	movw   $0x0,(%eax)
  80265e:	eb 01                	jmp    802661 <PAL_BattleUpdateFighters+0x430>
  802660:	90                   	nop
  802661:	83 45 f4 01          	addl   $0x1,-0xc(%ebp)
  802665:	c7 c0 e0 41 86 00    	mov    $0x8641e0,%eax
  80266b:	0f b7 80 b0 04 00 00 	movzwl 0x4b0(%eax),%eax
  802672:	0f b7 c0             	movzwl %ax,%eax
  802675:	39 45 f4             	cmp    %eax,-0xc(%ebp)
  802678:	0f 8e cc fd ff ff    	jle    80244a <PAL_BattleUpdateFighters+0x219>
  80267e:	90                   	nop
  80267f:	8d 65 f8             	lea    -0x8(%ebp),%esp
  802682:	5b                   	pop    %ebx
  802683:	5e                   	pop    %esi
  802684:	5d                   	pop    %ebp
  802685:	c3                   	ret    

00802686 <PAL_BattlePlayerCheckReady>:
  802686:	55                   	push   %ebp
  802687:	89 e5                	mov    %esp,%ebp
  802689:	83 ec 18             	sub    $0x18,%esp
  80268c:	e8 82 db ff ff       	call   800213 <__x86.get_pc_thunk.ax>
  802691:	05 6f 99 04 00       	add    $0x4996f,%eax
  802696:	d9 ee                	fldz   
  802698:	d9 5d fc             	fstps  -0x4(%ebp)
  80269b:	c7 45 f8 00 00 00 00 	movl   $0x0,-0x8(%ebp)
  8026a2:	c7 45 f4 00 00 00 00 	movl   $0x0,-0xc(%ebp)
  8026a9:	e9 a2 00 00 00       	jmp    802750 <PAL_BattlePlayerCheckReady+0xca>
  8026ae:	c7 c1 e0 41 86 00    	mov    $0x8641e0,%ecx
  8026b4:	8b 55 f4             	mov    -0xc(%ebp),%edx
  8026b7:	6b d2 3c             	imul   $0x3c,%edx,%edx
  8026ba:	01 ca                	add    %ecx,%edx
  8026bc:	83 c2 20             	add    $0x20,%edx
  8026bf:	8b 12                	mov    (%edx),%edx
  8026c1:	83 fa 01             	cmp    $0x1,%edx
  8026c4:	74 30                	je     8026f6 <PAL_BattlePlayerCheckReady+0x70>
  8026c6:	c7 c1 e0 41 86 00    	mov    $0x8641e0,%ecx
  8026cc:	8b 55 f4             	mov    -0xc(%ebp),%edx
  8026cf:	6b d2 3c             	imul   $0x3c,%edx,%edx
  8026d2:	01 ca                	add    %ecx,%edx
  8026d4:	83 c2 20             	add    $0x20,%edx
  8026d7:	8b 12                	mov    (%edx),%edx
  8026d9:	83 fa 02             	cmp    $0x2,%edx
  8026dc:	75 1f                	jne    8026fd <PAL_BattlePlayerCheckReady+0x77>
  8026de:	c7 c1 e0 41 86 00    	mov    $0x8641e0,%ecx
  8026e4:	8b 55 f4             	mov    -0xc(%ebp),%edx
  8026e7:	6b d2 3c             	imul   $0x3c,%edx,%edx
  8026ea:	01 ca                	add    %ecx,%edx
  8026ec:	83 c2 24             	add    $0x24,%edx
  8026ef:	8b 12                	mov    (%edx),%edx
  8026f1:	83 fa 04             	cmp    $0x4,%edx
  8026f4:	75 07                	jne    8026fd <PAL_BattlePlayerCheckReady+0x77>
  8026f6:	d9 ee                	fldz   
  8026f8:	d9 5d fc             	fstps  -0x4(%ebp)
  8026fb:	eb 6e                	jmp    80276b <PAL_BattlePlayerCheckReady+0xe5>
  8026fd:	c7 c1 e0 41 86 00    	mov    $0x8641e0,%ecx
  802703:	8b 55 f4             	mov    -0xc(%ebp),%edx
  802706:	6b d2 3c             	imul   $0x3c,%edx,%edx
  802709:	01 ca                	add    %ecx,%edx
  80270b:	83 c2 20             	add    $0x20,%edx
  80270e:	8b 12                	mov    (%edx),%edx
  802710:	85 d2                	test   %edx,%edx
  802712:	75 38                	jne    80274c <PAL_BattlePlayerCheckReady+0xc6>
  802714:	c7 c1 e0 41 86 00    	mov    $0x8641e0,%ecx
  80271a:	8b 55 f4             	mov    -0xc(%ebp),%edx
  80271d:	6b d2 3c             	imul   $0x3c,%edx,%edx
  802720:	01 ca                	add    %ecx,%edx
  802722:	83 c2 04             	add    $0x4,%edx
  802725:	d9 45 fc             	flds   -0x4(%ebp)
  802728:	d9 02                	flds   (%edx)
  80272a:	df f1                	fcomip %st(1),%st
  80272c:	dd d8                	fstp   %st(0)
  80272e:	76 1c                	jbe    80274c <PAL_BattlePlayerCheckReady+0xc6>
  802730:	8b 55 f4             	mov    -0xc(%ebp),%edx
  802733:	89 55 f8             	mov    %edx,-0x8(%ebp)
  802736:	c7 c1 e0 41 86 00    	mov    $0x8641e0,%ecx
  80273c:	8b 55 f4             	mov    -0xc(%ebp),%edx
  80273f:	6b d2 3c             	imul   $0x3c,%edx,%edx
  802742:	01 ca                	add    %ecx,%edx
  802744:	83 c2 04             	add    $0x4,%edx
  802747:	d9 02                	flds   (%edx)
  802749:	d9 5d fc             	fstps  -0x4(%ebp)
  80274c:	83 45 f4 01          	addl   $0x1,-0xc(%ebp)
  802750:	c7 c2 98 41 86 00    	mov    $0x864198,%edx
  802756:	8b 12                	mov    (%edx),%edx
  802758:	0f b7 92 f6 43 00 00 	movzwl 0x43f6(%edx),%edx
  80275f:	0f b7 d2             	movzwl %dx,%edx
  802762:	39 55 f4             	cmp    %edx,-0xc(%ebp)
  802765:	0f 8e 43 ff ff ff    	jle    8026ae <PAL_BattlePlayerCheckReady+0x28>
  80276b:	d9 45 fc             	flds   -0x4(%ebp)
  80276e:	d9 7d ee             	fnstcw -0x12(%ebp)
  802771:	0f b7 55 ee          	movzwl -0x12(%ebp),%edx
  802775:	80 ce 0c             	or     $0xc,%dh
  802778:	66 89 55 ec          	mov    %dx,-0x14(%ebp)
  80277c:	d9 6d ec             	fldcw  -0x14(%ebp)
  80277f:	db 5d e8             	fistpl -0x18(%ebp)
  802782:	d9 6d ee             	fldcw  -0x12(%ebp)
  802785:	8b 55 e8             	mov    -0x18(%ebp),%edx
  802788:	83 fa 63             	cmp    $0x63,%edx
  80278b:	7e 2e                	jle    8027bb <PAL_BattlePlayerCheckReady+0x135>
  80278d:	c7 c1 e0 41 86 00    	mov    $0x8641e0,%ecx
  802793:	8b 55 f8             	mov    -0x8(%ebp),%edx
  802796:	6b d2 3c             	imul   $0x3c,%edx,%edx
  802799:	01 ca                	add    %ecx,%edx
  80279b:	83 c2 20             	add    $0x20,%edx
  80279e:	c7 02 01 00 00 00    	movl   $0x1,(%edx)
  8027a4:	c7 c2 e0 41 86 00    	mov    $0x8641e0,%edx
  8027aa:	8b 45 f8             	mov    -0x8(%ebp),%eax
  8027ad:	6b c0 3c             	imul   $0x3c,%eax,%eax
  8027b0:	01 d0                	add    %edx,%eax
  8027b2:	83 c0 30             	add    $0x30,%eax
  8027b5:	c7 00 00 00 00 00    	movl   $0x0,(%eax)
  8027bb:	90                   	nop
  8027bc:	c9                   	leave  
  8027bd:	c3                   	ret    

008027be <PAL_BattleStartFrame>:
  8027be:	55                   	push   %ebp
  8027bf:	89 e5                	mov    %esp,%ebp
  8027c1:	53                   	push   %ebx
  8027c2:	83 ec 34             	sub    $0x34,%esp
  8027c5:	e8 4d da ff ff       	call   800217 <__x86.get_pc_thunk.bx>
  8027ca:	81 c3 36 98 04 00    	add    $0x49836,%ebx
  8027d0:	c7 45 ec 01 00 00 00 	movl   $0x1,-0x14(%ebp)
  8027d7:	c7 45 e8 00 00 00 00 	movl   $0x0,-0x18(%ebp)
  8027de:	c7 c0 e0 41 86 00    	mov    $0x8641e0,%eax
  8027e4:	8b 80 d8 04 00 00    	mov    0x4d8(%eax),%eax
  8027ea:	85 c0                	test   %eax,%eax
  8027ec:	75 05                	jne    8027f3 <PAL_BattleStartFrame+0x35>
  8027ee:	e8 3e fa ff ff       	call   802231 <PAL_BattleUpdateFighters>
  8027f3:	e8 fc 94 00 00       	call   80bcf4 <PAL_BattleMakeScene>
  8027f8:	c7 c0 80 41 86 00    	mov    $0x864180,%eax
  8027fe:	8b 10                	mov    (%eax),%edx
  802800:	c7 c0 e0 41 86 00    	mov    $0x8641e0,%eax
  802806:	8b 80 b4 04 00 00    	mov    0x4b4(%eax),%eax
  80280c:	6a 00                	push   $0x0
  80280e:	52                   	push   %edx
  80280f:	6a 00                	push   $0x0
  802811:	50                   	push   %eax
  802812:	e8 56 39 01 00       	call   81616d <SDL_BlitSurface>
  802817:	83 c4 10             	add    $0x10,%esp
  80281a:	c7 c0 e0 41 86 00    	mov    $0x8641e0,%eax
  802820:	8b 80 d8 04 00 00    	mov    0x4d8(%eax),%eax
  802826:	85 c0                	test   %eax,%eax
  802828:	74 24                	je     80284e <PAL_BattleStartFrame+0x90>
  80282a:	c7 c0 e0 41 86 00    	mov    $0x8641e0,%eax
  802830:	c7 80 dc 04 00 00 03 	movl   $0x3,0x4dc(%eax)
  802837:	00 00 00 
  80283a:	83 ec 08             	sub    $0x8,%esp
  80283d:	6a 00                	push   $0x0
  80283f:	6a ff                	push   $0xffffffff
  802841:	e8 43 e2 00 00       	call   810a89 <SOUND_PlayChannel>
  802846:	83 c4 10             	add    $0x10,%esp
  802849:	e9 f9 0a 00 00       	jmp    803347 <PAL_BattleStartFrame+0xb89>
  80284e:	c7 45 e0 01 00 00 00 	movl   $0x1,-0x20(%ebp)
  802855:	c7 45 f4 00 00 00 00 	movl   $0x0,-0xc(%ebp)
  80285c:	eb 7d                	jmp    8028db <PAL_BattleStartFrame+0x11d>
  80285e:	c7 c0 98 41 86 00    	mov    $0x864198,%eax
  802864:	8b 08                	mov    (%eax),%ecx
  802866:	8b 55 f4             	mov    -0xc(%ebp),%edx
  802869:	89 d0                	mov    %edx,%eax
  80286b:	c1 e0 02             	shl    $0x2,%eax
  80286e:	01 d0                	add    %edx,%eax
  802870:	01 c0                	add    %eax,%eax
  802872:	01 c8                	add    %ecx,%eax
  802874:	05 f8 43 00 00       	add    $0x43f8,%eax
  802879:	0f b7 00             	movzwl (%eax),%eax
  80287c:	66 89 45 de          	mov    %ax,-0x22(%ebp)
  802880:	c7 c0 98 41 86 00    	mov    $0x864198,%eax
  802886:	8b 00                	mov    (%eax),%eax
  802888:	0f b7 55 de          	movzwl -0x22(%ebp),%edx
  80288c:	81 c2 10 13 00 00    	add    $0x1310,%edx
  802892:	0f b7 44 50 14       	movzwl 0x14(%eax,%edx,2),%eax
  802897:	66 85 c0             	test   %ax,%ax
  80289a:	74 10                	je     8028ac <PAL_BattleStartFrame+0xee>
  80289c:	c7 45 ec 00 00 00 00 	movl   $0x0,-0x14(%ebp)
  8028a3:	c7 45 e0 00 00 00 00 	movl   $0x0,-0x20(%ebp)
  8028aa:	eb 4a                	jmp    8028f6 <PAL_BattleStartFrame+0x138>
  8028ac:	c7 c0 98 41 86 00    	mov    $0x864198,%eax
  8028b2:	8b 08                	mov    (%eax),%ecx
  8028b4:	0f b7 55 de          	movzwl -0x22(%ebp),%edx
  8028b8:	89 d0                	mov    %edx,%eax
  8028ba:	c1 e0 03             	shl    $0x3,%eax
  8028bd:	01 d0                	add    %edx,%eax
  8028bf:	01 c0                	add    %eax,%eax
  8028c1:	01 c8                	add    %ecx,%eax
  8028c3:	05 88 43 00 00       	add    $0x4388,%eax
  8028c8:	0f b7 00             	movzwl (%eax),%eax
  8028cb:	66 85 c0             	test   %ax,%ax
  8028ce:	74 07                	je     8028d7 <PAL_BattleStartFrame+0x119>
  8028d0:	c7 45 e0 00 00 00 00 	movl   $0x0,-0x20(%ebp)
  8028d7:	83 45 f4 01          	addl   $0x1,-0xc(%ebp)
  8028db:	c7 c0 98 41 86 00    	mov    $0x864198,%eax
  8028e1:	8b 00                	mov    (%eax),%eax
  8028e3:	0f b7 80 f6 43 00 00 	movzwl 0x43f6(%eax),%eax
  8028ea:	0f b7 c0             	movzwl %ax,%eax
  8028ed:	39 45 f4             	cmp    %eax,-0xc(%ebp)
  8028f0:	0f 8e 68 ff ff ff    	jle    80285e <PAL_BattleStartFrame+0xa0>
  8028f6:	83 7d e0 00          	cmpl   $0x0,-0x20(%ebp)
  8028fa:	74 15                	je     802911 <PAL_BattleStartFrame+0x153>
  8028fc:	c7 c0 e0 41 86 00    	mov    $0x8641e0,%eax
  802902:	c7 80 dc 04 00 00 01 	movl   $0x1,0x4dc(%eax)
  802909:	00 00 00 
  80290c:	e9 36 0a 00 00       	jmp    803347 <PAL_BattleStartFrame+0xb89>
  802911:	c7 c0 e0 41 86 00    	mov    $0x8641e0,%eax
  802917:	8b 80 0c 08 00 00    	mov    0x80c(%eax),%eax
  80291d:	85 c0                	test   %eax,%eax
  80291f:	7e 54                	jle    802975 <PAL_BattleStartFrame+0x1b7>
  802921:	83 ec 0c             	sub    $0xc,%esp
  802924:	68 0f 27 00 00       	push   $0x270f
  802929:	e8 b8 e7 ff ff       	call   8010e6 <PAL_GetTimeChargingSpeed>
  80292e:	83 c4 10             	add    $0x10,%esp
  802931:	d9 ee                	fldz   
  802933:	d9 c9                	fxch   %st(1)
  802935:	df f1                	fcomip %st(1),%st
  802937:	dd d8                	fstp   %st(0)
  802939:	76 1b                	jbe    802956 <PAL_BattleStartFrame+0x198>
  80293b:	c7 c0 e0 41 86 00    	mov    $0x8641e0,%eax
  802941:	8b 80 0c 08 00 00    	mov    0x80c(%eax),%eax
  802947:	8d 50 ff             	lea    -0x1(%eax),%edx
  80294a:	c7 c0 e0 41 86 00    	mov    $0x8641e0,%eax
  802950:	89 90 0c 08 00 00    	mov    %edx,0x80c(%eax)
  802956:	c7 c0 e0 41 86 00    	mov    $0x8641e0,%eax
  80295c:	8b 80 0c 08 00 00    	mov    0x80c(%eax),%eax
  802962:	85 c0                	test   %eax,%eax
  802964:	75 0f                	jne    802975 <PAL_BattleStartFrame+0x1b7>
  802966:	e8 d4 9d 00 00       	call   80c73f <PAL_BattleBackupScene>
  80296b:	e8 84 93 00 00       	call   80bcf4 <PAL_BattleMakeScene>
  802970:	e8 05 9e 00 00       	call   80c77a <PAL_BattleFadeScene>
  802975:	c7 45 f4 00 00 00 00 	movl   $0x0,-0xc(%ebp)
  80297c:	e9 b2 00 00 00       	jmp    802a33 <PAL_BattleStartFrame+0x275>
  802981:	c7 c2 e0 41 86 00    	mov    $0x8641e0,%edx
  802987:	8b 45 f4             	mov    -0xc(%ebp),%eax
  80298a:	69 c0 cc 00 00 00    	imul   $0xcc,%eax,%eax
  802990:	01 d0                	add    %edx,%eax
  802992:	05 b4 00 00 00       	add    $0xb4,%eax
  802997:	0f b7 00             	movzwl (%eax),%eax
  80299a:	66 85 c0             	test   %ax,%ax
  80299d:	0f 84 8b 00 00 00    	je     802a2e <PAL_BattleStartFrame+0x270>
  8029a3:	c7 c2 e0 41 86 00    	mov    $0x8641e0,%edx
  8029a9:	8b 45 f4             	mov    -0xc(%ebp),%eax
  8029ac:	69 c0 cc 00 00 00    	imul   $0xcc,%eax,%eax
  8029b2:	01 d0                	add    %edx,%eax
  8029b4:	05 68 01 00 00       	add    $0x168,%eax
  8029b9:	8b 00                	mov    (%eax),%eax
  8029bb:	85 c0                	test   %eax,%eax
  8029bd:	74 70                	je     802a2f <PAL_BattleStartFrame+0x271>
  8029bf:	8b 45 f4             	mov    -0xc(%ebp),%eax
  8029c2:	0f b7 d0             	movzwl %ax,%edx
  8029c5:	c7 c1 e0 41 86 00    	mov    $0x8641e0,%ecx
  8029cb:	8b 45 f4             	mov    -0xc(%ebp),%eax
  8029ce:	69 c0 cc 00 00 00    	imul   $0xcc,%eax,%eax
  8029d4:	01 c8                	add    %ecx,%eax
  8029d6:	05 74 01 00 00       	add    $0x174,%eax
  8029db:	0f b7 00             	movzwl (%eax),%eax
  8029de:	0f b7 c0             	movzwl %ax,%eax
  8029e1:	83 ec 08             	sub    $0x8,%esp
  8029e4:	52                   	push   %edx
  8029e5:	50                   	push   %eax
  8029e6:	e8 48 a3 01 00       	call   81cd33 <PAL_RunTriggerScript>
  8029eb:	83 c4 10             	add    $0x10,%esp
  8029ee:	89 c1                	mov    %eax,%ecx
  8029f0:	c7 c2 e0 41 86 00    	mov    $0x8641e0,%edx
  8029f6:	8b 45 f4             	mov    -0xc(%ebp),%eax
  8029f9:	69 c0 cc 00 00 00    	imul   $0xcc,%eax,%eax
  8029ff:	01 d0                	add    %edx,%eax
  802a01:	05 74 01 00 00       	add    $0x174,%eax
  802a06:	66 89 08             	mov    %cx,(%eax)
  802a09:	c7 c2 e0 41 86 00    	mov    $0x8641e0,%edx
  802a0f:	8b 45 f4             	mov    -0xc(%ebp),%eax
  802a12:	69 c0 cc 00 00 00    	imul   $0xcc,%eax,%eax
  802a18:	01 d0                	add    %edx,%eax
  802a1a:	05 68 01 00 00       	add    $0x168,%eax
  802a1f:	c7 00 00 00 00 00    	movl   $0x0,(%eax)
  802a25:	c7 45 e8 01 00 00 00 	movl   $0x1,-0x18(%ebp)
  802a2c:	eb 01                	jmp    802a2f <PAL_BattleStartFrame+0x271>
  802a2e:	90                   	nop
  802a2f:	83 45 f4 01          	addl   $0x1,-0xc(%ebp)
  802a33:	c7 c0 e0 41 86 00    	mov    $0x8641e0,%eax
  802a39:	0f b7 80 b0 04 00 00 	movzwl 0x4b0(%eax),%eax
  802a40:	0f b7 c0             	movzwl %ax,%eax
  802a43:	39 45 f4             	cmp    %eax,-0xc(%ebp)
  802a46:	0f 8e 35 ff ff ff    	jle    802981 <PAL_BattleStartFrame+0x1c3>
  802a4c:	c7 45 f4 00 00 00 00 	movl   $0x0,-0xc(%ebp)
  802a53:	e9 e9 03 00 00       	jmp    802e41 <PAL_BattleStartFrame+0x683>
  802a58:	c7 c2 e0 41 86 00    	mov    $0x8641e0,%edx
  802a5e:	8b 45 f4             	mov    -0xc(%ebp),%eax
  802a61:	69 c0 cc 00 00 00    	imul   $0xcc,%eax,%eax
  802a67:	01 d0                	add    %edx,%eax
  802a69:	05 b4 00 00 00       	add    $0xb4,%eax
  802a6e:	0f b7 00             	movzwl (%eax),%eax
  802a71:	66 85 c0             	test   %ax,%ax
  802a74:	0f 84 bf 03 00 00    	je     802e39 <PAL_BattleStartFrame+0x67b>
  802a7a:	c7 c2 e0 41 86 00    	mov    $0x8641e0,%edx
  802a80:	8b 45 f4             	mov    -0xc(%ebp),%eax
  802a83:	69 c0 cc 00 00 00    	imul   $0xcc,%eax,%eax
  802a89:	01 d0                	add    %edx,%eax
  802a8b:	05 64 01 00 00       	add    $0x164,%eax
  802a90:	8b 00                	mov    (%eax),%eax
  802a92:	83 f8 01             	cmp    $0x1,%eax
  802a95:	0f 84 31 01 00 00    	je     802bcc <PAL_BattleStartFrame+0x40e>
  802a9b:	85 c0                	test   %eax,%eax
  802a9d:	74 0e                	je     802aad <PAL_BattleStartFrame+0x2ef>
  802a9f:	83 f8 02             	cmp    $0x2,%eax
  802aa2:	0f 84 96 01 00 00    	je     802c3e <PAL_BattleStartFrame+0x480>
  802aa8:	e9 90 03 00 00       	jmp    802e3d <PAL_BattleStartFrame+0x67f>
  802aad:	8b 45 f4             	mov    -0xc(%ebp),%eax
  802ab0:	0f b7 c0             	movzwl %ax,%eax
  802ab3:	83 ec 0c             	sub    $0xc,%esp
  802ab6:	50                   	push   %eax
  802ab7:	e8 ac e2 ff ff       	call   800d68 <PAL_GetEnemyDexterity>
  802abc:	83 c4 10             	add    $0x10,%esp
  802abf:	0f b7 c0             	movzwl %ax,%eax
  802ac2:	83 ec 0c             	sub    $0xc,%esp
  802ac5:	50                   	push   %eax
  802ac6:	e8 1b e6 ff ff       	call   8010e6 <PAL_GetTimeChargingSpeed>
  802acb:	83 c4 10             	add    $0x10,%esp
  802ace:	d9 5d d8             	fstps  -0x28(%ebp)
  802ad1:	c7 c0 98 41 86 00    	mov    $0x864198,%eax
  802ad7:	8b 00                	mov    (%eax),%eax
  802ad9:	8b 80 dc 2a 00 00    	mov    0x2adc(%eax),%eax
  802adf:	85 c0                	test   %eax,%eax
  802ae1:	74 08                	je     802aeb <PAL_BattleStartFrame+0x32d>
  802ae3:	d9 83 c4 64 ff ff    	flds   -0x9b3c(%ebx)
  802ae9:	eb 02                	jmp    802aed <PAL_BattleStartFrame+0x32f>
  802aeb:	d9 e8                	fld1   
  802aed:	d9 45 d8             	flds   -0x28(%ebp)
  802af0:	de f1                	fdivp  %st,%st(1)
  802af2:	d9 5d d8             	fstps  -0x28(%ebp)
  802af5:	d9 45 d8             	flds   -0x28(%ebp)
  802af8:	d9 ee                	fldz   
  802afa:	df e9                	fucomip %st(1),%st
  802afc:	dd d8                	fstp   %st(0)
  802afe:	7a 10                	jp     802b10 <PAL_BattleStartFrame+0x352>
  802b00:	d9 45 d8             	flds   -0x28(%ebp)
  802b03:	d9 ee                	fldz   
  802b05:	df e9                	fucomip %st(1),%st
  802b07:	dd d8                	fstp   %st(0)
  802b09:	75 05                	jne    802b10 <PAL_BattleStartFrame+0x352>
  802b0b:	e9 2d 03 00 00       	jmp    802e3d <PAL_BattleStartFrame+0x67f>
  802b10:	c7 c2 e0 41 86 00    	mov    $0x8641e0,%edx
  802b16:	8b 45 f4             	mov    -0xc(%ebp),%eax
  802b19:	69 c0 cc 00 00 00    	imul   $0xcc,%eax,%eax
  802b1f:	01 d0                	add    %edx,%eax
  802b21:	05 10 01 00 00       	add    $0x110,%eax
  802b26:	d9 00                	flds   (%eax)
  802b28:	d8 45 d8             	fadds  -0x28(%ebp)
  802b2b:	c7 c2 e0 41 86 00    	mov    $0x8641e0,%edx
  802b31:	8b 45 f4             	mov    -0xc(%ebp),%eax
  802b34:	69 c0 cc 00 00 00    	imul   $0xcc,%eax,%eax
  802b3a:	01 d0                	add    %edx,%eax
  802b3c:	05 10 01 00 00       	add    $0x110,%eax
  802b41:	d9 18                	fstps  (%eax)
  802b43:	c7 c2 e0 41 86 00    	mov    $0x8641e0,%edx
  802b49:	8b 45 f4             	mov    -0xc(%ebp),%eax
  802b4c:	69 c0 cc 00 00 00    	imul   $0xcc,%eax,%eax
  802b52:	01 d0                	add    %edx,%eax
  802b54:	05 10 01 00 00       	add    $0x110,%eax
  802b59:	d9 83 08 65 ff ff    	flds   -0x9af8(%ebx)
  802b5f:	d9 00                	flds   (%eax)
  802b61:	df f1                	fcomip %st(1),%st
  802b63:	dd d8                	fstp   %st(0)
  802b65:	77 05                	ja     802b6c <PAL_BattleStartFrame+0x3ae>
  802b67:	e9 d1 02 00 00       	jmp    802e3d <PAL_BattleStartFrame+0x67f>
  802b6c:	d9 ee                	fldz   
  802b6e:	d9 45 d8             	flds   -0x28(%ebp)
  802b71:	df f1                	fcomip %st(1),%st
  802b73:	dd d8                	fstp   %st(0)
  802b75:	77 05                	ja     802b7c <PAL_BattleStartFrame+0x3be>
  802b77:	e9 c1 02 00 00       	jmp    802e3d <PAL_BattleStartFrame+0x67f>
  802b7c:	c7 c0 e0 41 86 00    	mov    $0x8641e0,%eax
  802b82:	8b 80 0c 08 00 00    	mov    0x80c(%eax),%eax
  802b88:	85 c0                	test   %eax,%eax
  802b8a:	75 21                	jne    802bad <PAL_BattleStartFrame+0x3ef>
  802b8c:	c7 c2 e0 41 86 00    	mov    $0x8641e0,%edx
  802b92:	8b 45 f4             	mov    -0xc(%ebp),%eax
  802b95:	69 c0 cc 00 00 00    	imul   $0xcc,%eax,%eax
  802b9b:	01 d0                	add    %edx,%eax
  802b9d:	05 64 01 00 00       	add    $0x164,%eax
  802ba2:	c7 00 01 00 00 00    	movl   $0x1,(%eax)
  802ba8:	e9 90 02 00 00       	jmp    802e3d <PAL_BattleStartFrame+0x67f>
  802bad:	c7 c2 e0 41 86 00    	mov    $0x8641e0,%edx
  802bb3:	8b 45 f4             	mov    -0xc(%ebp),%eax
  802bb6:	69 c0 cc 00 00 00    	imul   $0xcc,%eax,%eax
  802bbc:	01 d0                	add    %edx,%eax
  802bbe:	05 10 01 00 00       	add    $0x110,%eax
  802bc3:	d9 ee                	fldz   
  802bc5:	d9 18                	fstps  (%eax)
  802bc7:	e9 71 02 00 00       	jmp    802e3d <PAL_BattleStartFrame+0x67f>
  802bcc:	8b 45 f4             	mov    -0xc(%ebp),%eax
  802bcf:	0f b7 d0             	movzwl %ax,%edx
  802bd2:	c7 c1 e0 41 86 00    	mov    $0x8641e0,%ecx
  802bd8:	8b 45 f4             	mov    -0xc(%ebp),%eax
  802bdb:	69 c0 cc 00 00 00    	imul   $0xcc,%eax,%eax
  802be1:	01 c8                	add    %ecx,%eax
  802be3:	05 78 01 00 00       	add    $0x178,%eax
  802be8:	0f b7 00             	movzwl (%eax),%eax
  802beb:	0f b7 c0             	movzwl %ax,%eax
  802bee:	83 ec 08             	sub    $0x8,%esp
  802bf1:	52                   	push   %edx
  802bf2:	50                   	push   %eax
  802bf3:	e8 3b a1 01 00       	call   81cd33 <PAL_RunTriggerScript>
  802bf8:	83 c4 10             	add    $0x10,%esp
  802bfb:	89 c1                	mov    %eax,%ecx
  802bfd:	c7 c2 e0 41 86 00    	mov    $0x8641e0,%edx
  802c03:	8b 45 f4             	mov    -0xc(%ebp),%eax
  802c06:	69 c0 cc 00 00 00    	imul   $0xcc,%eax,%eax
  802c0c:	01 d0                	add    %edx,%eax
  802c0e:	05 78 01 00 00       	add    $0x178,%eax
  802c13:	66 89 08             	mov    %cx,(%eax)
  802c16:	c7 c2 e0 41 86 00    	mov    $0x8641e0,%edx
  802c1c:	8b 45 f4             	mov    -0xc(%ebp),%eax
  802c1f:	69 c0 cc 00 00 00    	imul   $0xcc,%eax,%eax
  802c25:	01 d0                	add    %edx,%eax
  802c27:	05 64 01 00 00       	add    $0x164,%eax
  802c2c:	c7 00 02 00 00 00    	movl   $0x2,(%eax)
  802c32:	c7 45 e8 01 00 00 00 	movl   $0x1,-0x18(%ebp)
  802c39:	e9 ff 01 00 00       	jmp    802e3d <PAL_BattleStartFrame+0x67f>
  802c3e:	83 7d e8 00          	cmpl   $0x0,-0x18(%ebp)
  802c42:	0f 85 f4 01 00 00    	jne    802e3c <PAL_BattleStartFrame+0x67e>
  802c48:	83 ec 0c             	sub    $0xc,%esp
  802c4b:	68 0f 27 00 00       	push   $0x270f
  802c50:	e8 91 e4 ff ff       	call   8010e6 <PAL_GetTimeChargingSpeed>
  802c55:	83 c4 10             	add    $0x10,%esp
  802c58:	d9 ee                	fldz   
  802c5a:	d9 c9                	fxch   %st(1)
  802c5c:	df f1                	fcomip %st(1),%st
  802c5e:	dd d8                	fstp   %st(0)
  802c60:	77 20                	ja     802c82 <PAL_BattleStartFrame+0x4c4>
  802c62:	c7 c2 e0 41 86 00    	mov    $0x8641e0,%edx
  802c68:	8b 45 f4             	mov    -0xc(%ebp),%eax
  802c6b:	69 c0 cc 00 00 00    	imul   $0xcc,%eax,%eax
  802c71:	01 d0                	add    %edx,%eax
  802c73:	05 70 01 00 00       	add    $0x170,%eax
  802c78:	8b 00                	mov    (%eax),%eax
  802c7a:	85 c0                	test   %eax,%eax
  802c7c:	0f 84 ba 01 00 00    	je     802e3c <PAL_BattleStartFrame+0x67e>
  802c82:	83 7d ec 00          	cmpl   $0x0,-0x14(%ebp)
  802c86:	0f 85 b0 01 00 00    	jne    802e3c <PAL_BattleStartFrame+0x67e>
  802c8c:	c7 45 e8 01 00 00 00 	movl   $0x1,-0x18(%ebp)
  802c93:	c7 c0 e0 41 86 00    	mov    $0x8641e0,%eax
  802c99:	c7 80 08 08 00 00 01 	movl   $0x1,0x808(%eax)
  802ca0:	00 00 00 
  802ca3:	c7 c2 e0 41 86 00    	mov    $0x8641e0,%edx
  802ca9:	8b 45 f4             	mov    -0xc(%ebp),%eax
  802cac:	69 c0 cc 00 00 00    	imul   $0xcc,%eax,%eax
  802cb2:	01 d0                	add    %edx,%eax
  802cb4:	05 6c 01 00 00       	add    $0x16c,%eax
  802cb9:	8b 00                	mov    (%eax),%eax
  802cbb:	85 c0                	test   %eax,%eax
  802cbd:	75 57                	jne    802d16 <PAL_BattleStartFrame+0x558>
  802cbf:	c7 c2 e0 41 86 00    	mov    $0x8641e0,%edx
  802cc5:	8b 45 f4             	mov    -0xc(%ebp),%eax
  802cc8:	69 c0 cc 00 00 00    	imul   $0xcc,%eax,%eax
  802cce:	01 d0                	add    %edx,%eax
  802cd0:	05 f8 00 00 00       	add    $0xf8,%eax
  802cd5:	0f b7 00             	movzwl (%eax),%eax
  802cd8:	66 83 f8 01          	cmp    $0x1,%ax
  802cdc:	77 31                	ja     802d0f <PAL_BattleStartFrame+0x551>
  802cde:	c7 c2 e0 41 86 00    	mov    $0x8641e0,%edx
  802ce4:	8b 45 f4             	mov    -0xc(%ebp),%eax
  802ce7:	69 c0 cc 00 00 00    	imul   $0xcc,%eax,%eax
  802ced:	01 d0                	add    %edx,%eax
  802cef:	05 f8 00 00 00       	add    $0xf8,%eax
  802cf4:	0f b7 00             	movzwl (%eax),%eax
  802cf7:	66 85 c0             	test   %ax,%ax
  802cfa:	74 1a                	je     802d16 <PAL_BattleStartFrame+0x558>
  802cfc:	83 ec 08             	sub    $0x8,%esp
  802cff:	6a 01                	push   $0x1
  802d01:	6a 00                	push   $0x0
  802d03:	e8 3a fa 00 00       	call   812742 <RandomLong>
  802d08:	83 c4 10             	add    $0x10,%esp
  802d0b:	85 c0                	test   %eax,%eax
  802d0d:	74 07                	je     802d16 <PAL_BattleStartFrame+0x558>
  802d0f:	b9 01 00 00 00       	mov    $0x1,%ecx
  802d14:	eb 05                	jmp    802d1b <PAL_BattleStartFrame+0x55d>
  802d16:	b9 00 00 00 00       	mov    $0x0,%ecx
  802d1b:	c7 c2 e0 41 86 00    	mov    $0x8641e0,%edx
  802d21:	8b 45 f4             	mov    -0xc(%ebp),%eax
  802d24:	69 c0 cc 00 00 00    	imul   $0xcc,%eax,%eax
  802d2a:	01 d0                	add    %edx,%eax
  802d2c:	05 70 01 00 00       	add    $0x170,%eax
  802d31:	89 08                	mov    %ecx,(%eax)
  802d33:	8b 45 f4             	mov    -0xc(%ebp),%eax
  802d36:	0f b7 c0             	movzwl %ax,%eax
  802d39:	83 ec 0c             	sub    $0xc,%esp
  802d3c:	50                   	push   %eax
  802d3d:	e8 b2 6b 00 00       	call   8098f4 <PAL_BattleEnemyPerformAction>
  802d42:	83 c4 10             	add    $0x10,%esp
  802d45:	c7 c2 e0 41 86 00    	mov    $0x8641e0,%edx
  802d4b:	8b 45 f4             	mov    -0xc(%ebp),%eax
  802d4e:	69 c0 cc 00 00 00    	imul   $0xcc,%eax,%eax
  802d54:	01 d0                	add    %edx,%eax
  802d56:	05 10 01 00 00       	add    $0x110,%eax
  802d5b:	d9 ee                	fldz   
  802d5d:	d9 18                	fstps  (%eax)
  802d5f:	c7 c2 e0 41 86 00    	mov    $0x8641e0,%edx
  802d65:	8b 45 f4             	mov    -0xc(%ebp),%eax
  802d68:	69 c0 cc 00 00 00    	imul   $0xcc,%eax,%eax
  802d6e:	01 d0                	add    %edx,%eax
  802d70:	05 64 01 00 00       	add    $0x164,%eax
  802d75:	c7 00 00 00 00 00    	movl   $0x0,(%eax)
  802d7b:	c7 c0 e0 41 86 00    	mov    $0x8641e0,%eax
  802d81:	c7 80 08 08 00 00 00 	movl   $0x0,0x808(%eax)
  802d88:	00 00 00 
  802d8b:	c7 c2 e0 41 86 00    	mov    $0x8641e0,%edx
  802d91:	8b 45 f4             	mov    -0xc(%ebp),%eax
  802d94:	69 c0 cc 00 00 00    	imul   $0xcc,%eax,%eax
  802d9a:	01 d0                	add    %edx,%eax
  802d9c:	05 70 01 00 00       	add    $0x170,%eax
  802da1:	8b 00                	mov    (%eax),%eax
  802da3:	85 c0                	test   %eax,%eax
  802da5:	74 58                	je     802dff <PAL_BattleStartFrame+0x641>
  802da7:	c7 c2 e0 41 86 00    	mov    $0x8641e0,%edx
  802dad:	8b 45 f4             	mov    -0xc(%ebp),%eax
  802db0:	69 c0 cc 00 00 00    	imul   $0xcc,%eax,%eax
  802db6:	01 d0                	add    %edx,%eax
  802db8:	05 10 01 00 00       	add    $0x110,%eax
  802dbd:	d9 83 08 65 ff ff    	flds   -0x9af8(%ebx)
  802dc3:	d9 18                	fstps  (%eax)
  802dc5:	c7 c2 e0 41 86 00    	mov    $0x8641e0,%edx
  802dcb:	8b 45 f4             	mov    -0xc(%ebp),%eax
  802dce:	69 c0 cc 00 00 00    	imul   $0xcc,%eax,%eax
  802dd4:	01 d0                	add    %edx,%eax
  802dd6:	05 64 01 00 00       	add    $0x164,%eax
  802ddb:	c7 00 01 00 00 00    	movl   $0x1,(%eax)
  802de1:	c7 c2 e0 41 86 00    	mov    $0x8641e0,%edx
  802de7:	8b 45 f4             	mov    -0xc(%ebp),%eax
  802dea:	69 c0 cc 00 00 00    	imul   $0xcc,%eax,%eax
  802df0:	01 d0                	add    %edx,%eax
  802df2:	05 6c 01 00 00       	add    $0x16c,%eax
  802df7:	c7 00 01 00 00 00    	movl   $0x1,(%eax)
  802dfd:	eb 3d                	jmp    802e3c <PAL_BattleStartFrame+0x67e>
  802dff:	c7 c2 e0 41 86 00    	mov    $0x8641e0,%edx
  802e05:	8b 45 f4             	mov    -0xc(%ebp),%eax
  802e08:	69 c0 cc 00 00 00    	imul   $0xcc,%eax,%eax
  802e0e:	01 d0                	add    %edx,%eax
  802e10:	05 6c 01 00 00       	add    $0x16c,%eax
  802e15:	c7 00 00 00 00 00    	movl   $0x0,(%eax)
  802e1b:	c7 c2 e0 41 86 00    	mov    $0x8641e0,%edx
  802e21:	8b 45 f4             	mov    -0xc(%ebp),%eax
  802e24:	69 c0 cc 00 00 00    	imul   $0xcc,%eax,%eax
  802e2a:	01 d0                	add    %edx,%eax
  802e2c:	05 68 01 00 00       	add    $0x168,%eax
  802e31:	c7 00 01 00 00 00    	movl   $0x1,(%eax)
  802e37:	eb 03                	jmp    802e3c <PAL_BattleStartFrame+0x67e>
  802e39:	90                   	nop
  802e3a:	eb 01                	jmp    802e3d <PAL_BattleStartFrame+0x67f>
  802e3c:	90                   	nop
  802e3d:	83 45 f4 01          	addl   $0x1,-0xc(%ebp)
  802e41:	c7 c0 e0 41 86 00    	mov    $0x8641e0,%eax
  802e47:	0f b7 80 b0 04 00 00 	movzwl 0x4b0(%eax),%eax
  802e4e:	0f b7 c0             	movzwl %ax,%eax
  802e51:	39 45 f4             	cmp    %eax,-0xc(%ebp)
  802e54:	0f 8e fe fb ff ff    	jle    802a58 <PAL_BattleStartFrame+0x29a>
  802e5a:	e8 9c cb 01 00       	call   81f9fb <PAL_BattleUIUpdate>
  802e5f:	c7 45 f4 00 00 00 00 	movl   $0x0,-0xc(%ebp)
  802e66:	e9 53 03 00 00       	jmp    8031be <PAL_BattleStartFrame+0xa00>
  802e6b:	c7 c0 98 41 86 00    	mov    $0x864198,%eax
  802e71:	8b 08                	mov    (%eax),%ecx
  802e73:	8b 55 f4             	mov    -0xc(%ebp),%edx
  802e76:	89 d0                	mov    %edx,%eax
  802e78:	c1 e0 02             	shl    $0x2,%eax
  802e7b:	01 d0                	add    %edx,%eax
  802e7d:	01 c0                	add    %eax,%eax
  802e7f:	01 c8                	add    %ecx,%eax
  802e81:	05 f8 43 00 00       	add    $0x43f8,%eax
  802e86:	0f b7 00             	movzwl (%eax),%eax
  802e89:	66 89 45 de          	mov    %ax,-0x22(%ebp)
  802e8d:	c7 c0 98 41 86 00    	mov    $0x864198,%eax
  802e93:	8b 00                	mov    (%eax),%eax
  802e95:	0f b7 55 de          	movzwl -0x22(%ebp),%edx
  802e99:	81 c2 10 13 00 00    	add    $0x1310,%edx
  802e9f:	0f b7 44 50 14       	movzwl 0x14(%eax,%edx,2),%eax
  802ea4:	66 85 c0             	test   %ax,%ax
  802ea7:	0f 85 80 00 00 00    	jne    802f2d <PAL_BattleStartFrame+0x76f>
  802ead:	c7 c0 98 41 86 00    	mov    $0x864198,%eax
  802eb3:	8b 08                	mov    (%eax),%ecx
  802eb5:	0f b7 55 de          	movzwl -0x22(%ebp),%edx
  802eb9:	89 d0                	mov    %edx,%eax
  802ebb:	c1 e0 03             	shl    $0x3,%eax
  802ebe:	01 d0                	add    %edx,%eax
  802ec0:	01 c0                	add    %eax,%eax
  802ec2:	01 c8                	add    %ecx,%eax
  802ec4:	05 88 43 00 00       	add    $0x4388,%eax
  802ec9:	0f b7 00             	movzwl (%eax),%eax
  802ecc:	66 85 c0             	test   %ax,%ax
  802ecf:	75 5c                	jne    802f2d <PAL_BattleStartFrame+0x76f>
  802ed1:	c7 c2 e0 41 86 00    	mov    $0x8641e0,%edx
  802ed7:	8b 45 f4             	mov    -0xc(%ebp),%eax
  802eda:	6b c0 3c             	imul   $0x3c,%eax,%eax
  802edd:	01 d0                	add    %edx,%eax
  802edf:	83 c0 20             	add    $0x20,%eax
  802ee2:	c7 00 00 00 00 00    	movl   $0x0,(%eax)
  802ee8:	c7 c2 e0 41 86 00    	mov    $0x8641e0,%edx
  802eee:	8b 45 f4             	mov    -0xc(%ebp),%eax
  802ef1:	6b c0 3c             	imul   $0x3c,%eax,%eax
  802ef4:	01 d0                	add    %edx,%eax
  802ef6:	83 c0 04             	add    $0x4,%eax
  802ef9:	d9 ee                	fldz   
  802efb:	d9 18                	fstps  (%eax)
  802efd:	c7 c2 e0 41 86 00    	mov    $0x8641e0,%edx
  802f03:	8b 45 f4             	mov    -0xc(%ebp),%eax
  802f06:	6b c0 3c             	imul   $0x3c,%eax,%eax
  802f09:	01 d0                	add    %edx,%eax
  802f0b:	83 c0 08             	add    $0x8,%eax
  802f0e:	d9 e8                	fld1   
  802f10:	d9 18                	fstps  (%eax)
  802f12:	c7 c2 e0 41 86 00    	mov    $0x8641e0,%edx
  802f18:	8b 45 f4             	mov    -0xc(%ebp),%eax
  802f1b:	6b c0 3c             	imul   $0x3c,%eax,%eax
  802f1e:	01 d0                	add    %edx,%eax
  802f20:	83 c0 38             	add    $0x38,%eax
  802f23:	66 c7 00 ff ff       	movw   $0xffff,(%eax)
  802f28:	e9 8d 02 00 00       	jmp    8031ba <PAL_BattleStartFrame+0x9fc>
  802f2d:	c7 c2 e0 41 86 00    	mov    $0x8641e0,%edx
  802f33:	8b 45 f4             	mov    -0xc(%ebp),%eax
  802f36:	6b c0 3c             	imul   $0x3c,%eax,%eax
  802f39:	01 d0                	add    %edx,%eax
  802f3b:	83 c0 20             	add    $0x20,%eax
  802f3e:	8b 00                	mov    (%eax),%eax
  802f40:	83 f8 01             	cmp    $0x1,%eax
  802f43:	0f 84 6d 02 00 00    	je     8031b6 <PAL_BattleStartFrame+0x9f8>
  802f49:	85 c0                	test   %eax,%eax
  802f4b:	74 0a                	je     802f57 <PAL_BattleStartFrame+0x799>
  802f4d:	83 f8 02             	cmp    $0x2,%eax
  802f50:	74 6b                	je     802fbd <PAL_BattleStartFrame+0x7ff>
  802f52:	e9 63 02 00 00       	jmp    8031ba <PAL_BattleStartFrame+0x9fc>
  802f57:	0f b7 45 de          	movzwl -0x22(%ebp),%eax
  802f5b:	83 ec 0c             	sub    $0xc,%esp
  802f5e:	50                   	push   %eax
  802f5f:	e8 70 df ff ff       	call   800ed4 <PAL_GetPlayerActualDexterity>
  802f64:	83 c4 10             	add    $0x10,%esp
  802f67:	66 89 45 d6          	mov    %ax,-0x2a(%ebp)
  802f6b:	0f b7 45 d6          	movzwl -0x2a(%ebp),%eax
  802f6f:	83 ec 0c             	sub    $0xc,%esp
  802f72:	50                   	push   %eax
  802f73:	e8 6e e1 ff ff       	call   8010e6 <PAL_GetTimeChargingSpeed>
  802f78:	83 c4 10             	add    $0x10,%esp
  802f7b:	c7 c2 e0 41 86 00    	mov    $0x8641e0,%edx
  802f81:	8b 45 f4             	mov    -0xc(%ebp),%eax
  802f84:	6b c0 3c             	imul   $0x3c,%eax,%eax
  802f87:	01 d0                	add    %edx,%eax
  802f89:	83 c0 08             	add    $0x8,%eax
  802f8c:	d9 00                	flds   (%eax)
  802f8e:	de c9                	fmulp  %st,%st(1)
  802f90:	c7 c2 e0 41 86 00    	mov    $0x8641e0,%edx
  802f96:	8b 45 f4             	mov    -0xc(%ebp),%eax
  802f99:	6b c0 3c             	imul   $0x3c,%eax,%eax
  802f9c:	01 d0                	add    %edx,%eax
  802f9e:	83 c0 04             	add    $0x4,%eax
  802fa1:	d9 00                	flds   (%eax)
  802fa3:	de c1                	faddp  %st,%st(1)
  802fa5:	c7 c2 e0 41 86 00    	mov    $0x8641e0,%edx
  802fab:	8b 45 f4             	mov    -0xc(%ebp),%eax
  802fae:	6b c0 3c             	imul   $0x3c,%eax,%eax
  802fb1:	01 d0                	add    %edx,%eax
  802fb3:	83 c0 04             	add    $0x4,%eax
  802fb6:	d9 18                	fstps  (%eax)
  802fb8:	e9 fd 01 00 00       	jmp    8031ba <PAL_BattleStartFrame+0x9fc>
  802fbd:	c7 c0 98 41 86 00    	mov    $0x864198,%eax
  802fc3:	8b 08                	mov    (%eax),%ecx
  802fc5:	0f b7 55 de          	movzwl -0x22(%ebp),%edx
  802fc9:	89 d0                	mov    %edx,%eax
  802fcb:	c1 e0 03             	shl    $0x3,%eax
  802fce:	01 d0                	add    %edx,%eax
  802fd0:	01 c0                	add    %eax,%eax
  802fd2:	01 c8                	add    %ecx,%eax
  802fd4:	05 84 43 00 00       	add    $0x4384,%eax
  802fd9:	0f b7 00             	movzwl (%eax),%eax
  802fdc:	66 85 c0             	test   %ax,%ax
  802fdf:	74 31                	je     803012 <PAL_BattleStartFrame+0x854>
  802fe1:	c7 c2 e0 41 86 00    	mov    $0x8641e0,%edx
  802fe7:	8b 45 f4             	mov    -0xc(%ebp),%eax
  802fea:	6b c0 3c             	imul   $0x3c,%eax,%eax
  802fed:	01 d0                	add    %edx,%eax
  802fef:	83 c0 24             	add    $0x24,%eax
  802ff2:	c7 00 00 00 00 00    	movl   $0x0,(%eax)
  802ff8:	c7 c2 e0 41 86 00    	mov    $0x8641e0,%edx
  802ffe:	8b 45 f4             	mov    -0xc(%ebp),%eax
  803001:	6b c0 3c             	imul   $0x3c,%eax,%eax
  803004:	01 d0                	add    %edx,%eax
  803006:	83 c0 2c             	add    $0x2c,%eax
  803009:	d9 ee                	fldz   
  80300b:	d9 18                	fstps  (%eax)
  80300d:	e9 a3 00 00 00       	jmp    8030b5 <PAL_BattleStartFrame+0x8f7>
  803012:	c7 c0 98 41 86 00    	mov    $0x864198,%eax
  803018:	8b 08                	mov    (%eax),%ecx
  80301a:	0f b7 55 de          	movzwl -0x22(%ebp),%edx
  80301e:	89 d0                	mov    %edx,%eax
  803020:	c1 e0 03             	shl    $0x3,%eax
  803023:	01 d0                	add    %edx,%eax
  803025:	01 c0                	add    %eax,%eax
  803027:	01 c8                	add    %ecx,%eax
  803029:	05 80 43 00 00       	add    $0x4380,%eax
  80302e:	0f b7 00             	movzwl (%eax),%eax
  803031:	66 85 c0             	test   %ax,%ax
  803034:	74 2e                	je     803064 <PAL_BattleStartFrame+0x8a6>
  803036:	c7 c2 e0 41 86 00    	mov    $0x8641e0,%edx
  80303c:	8b 45 f4             	mov    -0xc(%ebp),%eax
  80303f:	6b c0 3c             	imul   $0x3c,%eax,%eax
  803042:	01 d0                	add    %edx,%eax
  803044:	83 c0 24             	add    $0x24,%eax
  803047:	c7 00 08 00 00 00    	movl   $0x8,(%eax)
  80304d:	c7 c2 e0 41 86 00    	mov    $0x8641e0,%edx
  803053:	8b 45 f4             	mov    -0xc(%ebp),%eax
  803056:	6b c0 3c             	imul   $0x3c,%eax,%eax
  803059:	01 d0                	add    %edx,%eax
  80305b:	83 c0 2c             	add    $0x2c,%eax
  80305e:	d9 ee                	fldz   
  803060:	d9 18                	fstps  (%eax)
  803062:	eb 51                	jmp    8030b5 <PAL_BattleStartFrame+0x8f7>
  803064:	c7 c0 98 41 86 00    	mov    $0x864198,%eax
  80306a:	8b 08                	mov    (%eax),%ecx
  80306c:	0f b7 55 de          	movzwl -0x22(%ebp),%edx
  803070:	89 d0                	mov    %edx,%eax
  803072:	c1 e0 03             	shl    $0x3,%eax
  803075:	01 d0                	add    %edx,%eax
  803077:	01 c0                	add    %eax,%eax
  803079:	01 c8                	add    %ecx,%eax
  80307b:	05 86 43 00 00       	add    $0x4386,%eax
  803080:	0f b7 00             	movzwl (%eax),%eax
  803083:	66 85 c0             	test   %ax,%ax
  803086:	74 2d                	je     8030b5 <PAL_BattleStartFrame+0x8f7>
  803088:	c7 c2 e0 41 86 00    	mov    $0x8641e0,%edx
  80308e:	8b 45 f4             	mov    -0xc(%ebp),%eax
  803091:	6b c0 3c             	imul   $0x3c,%eax,%eax
  803094:	01 d0                	add    %edx,%eax
  803096:	83 c0 24             	add    $0x24,%eax
  803099:	8b 00                	mov    (%eax),%eax
  80309b:	83 f8 03             	cmp    $0x3,%eax
  80309e:	75 15                	jne    8030b5 <PAL_BattleStartFrame+0x8f7>
  8030a0:	c7 c2 e0 41 86 00    	mov    $0x8641e0,%edx
  8030a6:	8b 45 f4             	mov    -0xc(%ebp),%eax
  8030a9:	6b c0 3c             	imul   $0x3c,%eax,%eax
  8030ac:	01 d0                	add    %edx,%eax
  8030ae:	83 c0 2c             	add    $0x2c,%eax
  8030b1:	d9 ee                	fldz   
  8030b3:	d9 18                	fstps  (%eax)
  8030b5:	0f b7 45 de          	movzwl -0x22(%ebp),%eax
  8030b9:	83 ec 0c             	sub    $0xc,%esp
  8030bc:	50                   	push   %eax
  8030bd:	e8 12 de ff ff       	call   800ed4 <PAL_GetPlayerActualDexterity>
  8030c2:	83 c4 10             	add    $0x10,%esp
  8030c5:	66 89 45 d6          	mov    %ax,-0x2a(%ebp)
  8030c9:	0f b7 45 d6          	movzwl -0x2a(%ebp),%eax
  8030cd:	83 ec 0c             	sub    $0xc,%esp
  8030d0:	50                   	push   %eax
  8030d1:	e8 10 e0 ff ff       	call   8010e6 <PAL_GetTimeChargingSpeed>
  8030d6:	83 c4 10             	add    $0x10,%esp
  8030d9:	c7 c2 e0 41 86 00    	mov    $0x8641e0,%edx
  8030df:	8b 45 f4             	mov    -0xc(%ebp),%eax
  8030e2:	6b c0 3c             	imul   $0x3c,%eax,%eax
  8030e5:	01 d0                	add    %edx,%eax
  8030e7:	83 c0 2c             	add    $0x2c,%eax
  8030ea:	d9 00                	flds   (%eax)
  8030ec:	de e1                	fsubp  %st,%st(1)
  8030ee:	c7 c2 e0 41 86 00    	mov    $0x8641e0,%edx
  8030f4:	8b 45 f4             	mov    -0xc(%ebp),%eax
  8030f7:	6b c0 3c             	imul   $0x3c,%eax,%eax
  8030fa:	01 d0                	add    %edx,%eax
  8030fc:	83 c0 2c             	add    $0x2c,%eax
  8030ff:	d9 18                	fstps  (%eax)
  803101:	c7 c2 e0 41 86 00    	mov    $0x8641e0,%edx
  803107:	8b 45 f4             	mov    -0xc(%ebp),%eax
  80310a:	6b c0 3c             	imul   $0x3c,%eax,%eax
  80310d:	01 d0                	add    %edx,%eax
  80310f:	83 c0 2c             	add    $0x2c,%eax
  803112:	d9 00                	flds   (%eax)
  803114:	d9 ee                	fldz   
  803116:	df f1                	fcomip %st(1),%st
  803118:	dd d8                	fstp   %st(0)
  80311a:	73 05                	jae    803121 <PAL_BattleStartFrame+0x963>
  80311c:	e9 98 00 00 00       	jmp    8031b9 <PAL_BattleStartFrame+0x9fb>
  803121:	c7 c2 e0 41 86 00    	mov    $0x8641e0,%edx
  803127:	8b 45 f4             	mov    -0xc(%ebp),%eax
  80312a:	6b c0 3c             	imul   $0x3c,%eax,%eax
  80312d:	01 d0                	add    %edx,%eax
  80312f:	83 c0 38             	add    $0x38,%eax
  803132:	0f b7 00             	movzwl (%eax),%eax
  803135:	66 83 f8 ff          	cmp    $0xffff,%ax
  803139:	75 7e                	jne    8031b9 <PAL_BattleStartFrame+0x9fb>
  80313b:	66 c7 45 e6 ff ff    	movw   $0xffff,-0x1a(%ebp)
  803141:	c7 45 f0 00 00 00 00 	movl   $0x0,-0x10(%ebp)
  803148:	eb 36                	jmp    803180 <PAL_BattleStartFrame+0x9c2>
  80314a:	c7 c2 e0 41 86 00    	mov    $0x8641e0,%edx
  803150:	8b 45 f0             	mov    -0x10(%ebp),%eax
  803153:	6b c0 3c             	imul   $0x3c,%eax,%eax
  803156:	01 d0                	add    %edx,%eax
  803158:	83 c0 38             	add    $0x38,%eax
  80315b:	0f b7 00             	movzwl (%eax),%eax
  80315e:	66 39 45 e6          	cmp    %ax,-0x1a(%ebp)
  803162:	7d 18                	jge    80317c <PAL_BattleStartFrame+0x9be>
  803164:	c7 c2 e0 41 86 00    	mov    $0x8641e0,%edx
  80316a:	8b 45 f0             	mov    -0x10(%ebp),%eax
  80316d:	6b c0 3c             	imul   $0x3c,%eax,%eax
  803170:	01 d0                	add    %edx,%eax
  803172:	83 c0 38             	add    $0x38,%eax
  803175:	0f b7 00             	movzwl (%eax),%eax
  803178:	66 89 45 e6          	mov    %ax,-0x1a(%ebp)
  80317c:	83 45 f0 01          	addl   $0x1,-0x10(%ebp)
  803180:	c7 c0 98 41 86 00    	mov    $0x864198,%eax
  803186:	8b 00                	mov    (%eax),%eax
  803188:	0f b7 80 f6 43 00 00 	movzwl 0x43f6(%eax),%eax
  80318f:	0f b7 c0             	movzwl %ax,%eax
  803192:	39 45 f0             	cmp    %eax,-0x10(%ebp)
  803195:	7e b3                	jle    80314a <PAL_BattleStartFrame+0x98c>
  803197:	0f b7 45 e6          	movzwl -0x1a(%ebp),%eax
  80319b:	83 c0 01             	add    $0x1,%eax
  80319e:	89 c1                	mov    %eax,%ecx
  8031a0:	c7 c2 e0 41 86 00    	mov    $0x8641e0,%edx
  8031a6:	8b 45 f4             	mov    -0xc(%ebp),%eax
  8031a9:	6b c0 3c             	imul   $0x3c,%eax,%eax
  8031ac:	01 d0                	add    %edx,%eax
  8031ae:	83 c0 38             	add    $0x38,%eax
  8031b1:	66 89 08             	mov    %cx,(%eax)
  8031b4:	eb 03                	jmp    8031b9 <PAL_BattleStartFrame+0x9fb>
  8031b6:	90                   	nop
  8031b7:	eb 01                	jmp    8031ba <PAL_BattleStartFrame+0x9fc>
  8031b9:	90                   	nop
  8031ba:	83 45 f4 01          	addl   $0x1,-0xc(%ebp)
  8031be:	c7 c0 98 41 86 00    	mov    $0x864198,%eax
  8031c4:	8b 00                	mov    (%eax),%eax
  8031c6:	0f b7 80 f6 43 00 00 	movzwl 0x43f6(%eax),%eax
  8031cd:	0f b7 c0             	movzwl %ax,%eax
  8031d0:	39 45 f4             	cmp    %eax,-0xc(%ebp)
  8031d3:	0f 8e 92 fc ff ff    	jle    802e6b <PAL_BattleStartFrame+0x6ad>
  8031d9:	83 7d e8 00          	cmpl   $0x0,-0x18(%ebp)
  8031dd:	0f 85 64 01 00 00    	jne    803347 <PAL_BattleStartFrame+0xb89>
  8031e3:	66 c7 45 e6 0f 27    	movw   $0x270f,-0x1a(%ebp)
  8031e9:	66 c7 45 e4 ff ff    	movw   $0xffff,-0x1c(%ebp)
  8031ef:	c7 45 f4 00 00 00 00 	movl   $0x0,-0xc(%ebp)
  8031f6:	e9 d4 00 00 00       	jmp    8032cf <PAL_BattleStartFrame+0xb11>
  8031fb:	c7 c0 98 41 86 00    	mov    $0x864198,%eax
  803201:	8b 08                	mov    (%eax),%ecx
  803203:	8b 55 f4             	mov    -0xc(%ebp),%edx
  803206:	89 d0                	mov    %edx,%eax
  803208:	c1 e0 02             	shl    $0x2,%eax
  80320b:	01 d0                	add    %edx,%eax
  80320d:	01 c0                	add    %eax,%eax
  80320f:	01 c8                	add    %ecx,%eax
  803211:	05 f8 43 00 00       	add    $0x43f8,%eax
  803216:	0f b7 00             	movzwl (%eax),%eax
  803219:	66 89 45 de          	mov    %ax,-0x22(%ebp)
  80321d:	c7 c0 98 41 86 00    	mov    $0x864198,%eax
  803223:	8b 00                	mov    (%eax),%eax
  803225:	0f b7 55 de          	movzwl -0x22(%ebp),%edx
  803229:	81 c2 10 13 00 00    	add    $0x1310,%edx
  80322f:	0f b7 44 50 14       	movzwl 0x14(%eax,%edx,2),%eax
  803234:	66 85 c0             	test   %ax,%ax
  803237:	75 24                	jne    80325d <PAL_BattleStartFrame+0xa9f>
  803239:	c7 c0 98 41 86 00    	mov    $0x864198,%eax
  80323f:	8b 08                	mov    (%eax),%ecx
  803241:	0f b7 55 de          	movzwl -0x22(%ebp),%edx
  803245:	89 d0                	mov    %edx,%eax
  803247:	c1 e0 03             	shl    $0x3,%eax
  80324a:	01 d0                	add    %edx,%eax
  80324c:	01 c0                	add    %eax,%eax
  80324e:	01 c8                	add    %ecx,%eax
  803250:	05 88 43 00 00       	add    $0x4388,%eax
  803255:	0f b7 00             	movzwl (%eax),%eax
  803258:	66 85 c0             	test   %ax,%ax
  80325b:	74 6d                	je     8032ca <PAL_BattleStartFrame+0xb0c>
  80325d:	c7 c2 e0 41 86 00    	mov    $0x8641e0,%edx
  803263:	8b 45 f4             	mov    -0xc(%ebp),%eax
  803266:	6b c0 3c             	imul   $0x3c,%eax,%eax
  803269:	01 d0                	add    %edx,%eax
  80326b:	83 c0 20             	add    $0x20,%eax
  80326e:	8b 00                	mov    (%eax),%eax
  803270:	83 f8 02             	cmp    $0x2,%eax
  803273:	75 56                	jne    8032cb <PAL_BattleStartFrame+0xb0d>
  803275:	c7 c2 e0 41 86 00    	mov    $0x8641e0,%edx
  80327b:	8b 45 f4             	mov    -0xc(%ebp),%eax
  80327e:	6b c0 3c             	imul   $0x3c,%eax,%eax
  803281:	01 d0                	add    %edx,%eax
  803283:	83 c0 38             	add    $0x38,%eax
  803286:	0f b7 00             	movzwl (%eax),%eax
  803289:	66 83 f8 ff          	cmp    $0xffff,%ax
  80328d:	74 3c                	je     8032cb <PAL_BattleStartFrame+0xb0d>
  80328f:	c7 c2 e0 41 86 00    	mov    $0x8641e0,%edx
  803295:	8b 45 f4             	mov    -0xc(%ebp),%eax
  803298:	6b c0 3c             	imul   $0x3c,%eax,%eax
  80329b:	01 d0                	add    %edx,%eax
  80329d:	83 c0 38             	add    $0x38,%eax
  8032a0:	0f b7 00             	movzwl (%eax),%eax
  8032a3:	66 39 45 e6          	cmp    %ax,-0x1a(%ebp)
  8032a7:	7e 22                	jle    8032cb <PAL_BattleStartFrame+0xb0d>
  8032a9:	c7 c2 e0 41 86 00    	mov    $0x8641e0,%edx
  8032af:	8b 45 f4             	mov    -0xc(%ebp),%eax
  8032b2:	6b c0 3c             	imul   $0x3c,%eax,%eax
  8032b5:	01 d0                	add    %edx,%eax
  8032b7:	83 c0 38             	add    $0x38,%eax
  8032ba:	0f b7 00             	movzwl (%eax),%eax
  8032bd:	66 89 45 e6          	mov    %ax,-0x1a(%ebp)
  8032c1:	8b 45 f4             	mov    -0xc(%ebp),%eax
  8032c4:	66 89 45 e4          	mov    %ax,-0x1c(%ebp)
  8032c8:	eb 01                	jmp    8032cb <PAL_BattleStartFrame+0xb0d>
  8032ca:	90                   	nop
  8032cb:	83 45 f4 01          	addl   $0x1,-0xc(%ebp)
  8032cf:	c7 c0 98 41 86 00    	mov    $0x864198,%eax
  8032d5:	8b 00                	mov    (%eax),%eax
  8032d7:	0f b7 80 f6 43 00 00 	movzwl 0x43f6(%eax),%eax
  8032de:	0f b7 c0             	movzwl %ax,%eax
  8032e1:	39 45 f4             	cmp    %eax,-0xc(%ebp)
  8032e4:	0f 8e 11 ff ff ff    	jle    8031fb <PAL_BattleStartFrame+0xa3d>
  8032ea:	66 83 7d e4 ff       	cmpw   $0xffff,-0x1c(%ebp)
  8032ef:	74 56                	je     803347 <PAL_BattleStartFrame+0xb89>
  8032f1:	0f b7 45 e4          	movzwl -0x1c(%ebp),%eax
  8032f5:	0f b7 c0             	movzwl %ax,%eax
  8032f8:	83 ec 0c             	sub    $0xc,%esp
  8032fb:	50                   	push   %eax
  8032fc:	e8 59 40 00 00       	call   80735a <PAL_BattlePlayerPerformAction>
  803301:	83 c4 10             	add    $0x10,%esp
  803304:	0f bf 45 e4          	movswl -0x1c(%ebp),%eax
  803308:	c7 c2 e0 41 86 00    	mov    $0x8641e0,%edx
  80330e:	6b c0 3c             	imul   $0x3c,%eax,%eax
  803311:	01 d0                	add    %edx,%eax
  803313:	83 c0 04             	add    $0x4,%eax
  803316:	d9 ee                	fldz   
  803318:	d9 18                	fstps  (%eax)
  80331a:	0f bf 45 e4          	movswl -0x1c(%ebp),%eax
  80331e:	c7 c2 e0 41 86 00    	mov    $0x8641e0,%edx
  803324:	6b c0 3c             	imul   $0x3c,%eax,%eax
  803327:	01 d0                	add    %edx,%eax
  803329:	83 c0 08             	add    $0x8,%eax
  80332c:	d9 e8                	fld1   
  80332e:	d9 18                	fstps  (%eax)
  803330:	0f bf 45 e4          	movswl -0x1c(%ebp),%eax
  803334:	c7 c2 e0 41 86 00    	mov    $0x8641e0,%edx
  80333a:	6b c0 3c             	imul   $0x3c,%eax,%eax
  80333d:	01 d0                	add    %edx,%eax
  80333f:	83 c0 38             	add    $0x38,%eax
  803342:	66 c7 00 ff ff       	movw   $0xffff,(%eax)
  803347:	8b 5d fc             	mov    -0x4(%ebp),%ebx
  80334a:	c9                   	leave  
  80334b:	c3                   	ret    

0080334c <PAL_BattleCommitAction>:
  80334c:	55                   	push   %ebp
  80334d:	89 e5                	mov    %esp,%ebp
  80334f:	56                   	push   %esi
  803350:	53                   	push   %ebx
  803351:	83 ec 14             	sub    $0x14,%esp
  803354:	e8 ba ce ff ff       	call   800213 <__x86.get_pc_thunk.ax>
  803359:	05 a7 8c 04 00       	add    $0x48ca7,%eax
  80335e:	83 7d 08 00          	cmpl   $0x0,0x8(%ebp)
  803362:	0f 85 90 00 00 00    	jne    8033f8 <PAL_BattleCommitAction+0xac>
  803368:	c7 c2 e0 41 86 00    	mov    $0x8641e0,%edx
  80336e:	0f b7 9a fa 06 00 00 	movzwl 0x6fa(%edx),%ebx
  803375:	c7 c2 e0 41 86 00    	mov    $0x8641e0,%edx
  80337b:	0f b7 92 f2 06 00 00 	movzwl 0x6f2(%edx),%edx
  803382:	0f b7 ca             	movzwl %dx,%ecx
  803385:	0f b7 d3             	movzwl %bx,%edx
  803388:	c7 c3 e0 41 86 00    	mov    $0x8641e0,%ebx
  80338e:	6b c9 3c             	imul   $0x3c,%ecx,%ecx
  803391:	01 d9                	add    %ebx,%ecx
  803393:	83 c1 24             	add    $0x24,%ecx
  803396:	89 11                	mov    %edx,(%ecx)
  803398:	c7 c2 e0 41 86 00    	mov    $0x8641e0,%edx
  80339e:	0f b7 8a f6 06 00 00 	movzwl 0x6f6(%edx),%ecx
  8033a5:	c7 c2 e0 41 86 00    	mov    $0x8641e0,%edx
  8033ab:	0f b7 92 f2 06 00 00 	movzwl 0x6f2(%edx),%edx
  8033b2:	0f b7 d2             	movzwl %dx,%edx
  8033b5:	89 cb                	mov    %ecx,%ebx
  8033b7:	c7 c1 e0 41 86 00    	mov    $0x8641e0,%ecx
  8033bd:	6b d2 3c             	imul   $0x3c,%edx,%edx
  8033c0:	01 ca                	add    %ecx,%edx
  8033c2:	83 c2 2a             	add    $0x2a,%edx
  8033c5:	66 89 1a             	mov    %bx,(%edx)
  8033c8:	c7 c2 e0 41 86 00    	mov    $0x8641e0,%edx
  8033ce:	0f b7 92 f2 06 00 00 	movzwl 0x6f2(%edx),%edx
  8033d5:	0f b7 ca             	movzwl %dx,%ecx
  8033d8:	c7 c2 e0 41 86 00    	mov    $0x8641e0,%edx
  8033de:	0f b7 92 fc 06 00 00 	movzwl 0x6fc(%edx),%edx
  8033e5:	c7 c3 e0 41 86 00    	mov    $0x8641e0,%ebx
  8033eb:	6b c9 3c             	imul   $0x3c,%ecx,%ecx
  8033ee:	01 d9                	add    %ebx,%ecx
  8033f0:	83 c1 28             	add    $0x28,%ecx
  8033f3:	66 89 11             	mov    %dx,(%ecx)
  8033f6:	eb 6b                	jmp    803463 <PAL_BattleCommitAction+0x117>
  8033f8:	c7 c2 e0 41 86 00    	mov    $0x8641e0,%edx
  8033fe:	0f b7 92 f2 06 00 00 	movzwl 0x6f2(%edx),%edx
  803405:	0f b7 d2             	movzwl %dx,%edx
  803408:	c7 c1 e0 41 86 00    	mov    $0x8641e0,%ecx
  80340e:	6b d2 3c             	imul   $0x3c,%edx,%edx
  803411:	01 ca                	add    %ecx,%edx
  803413:	83 c2 24             	add    $0x24,%edx
  803416:	8b 12                	mov    (%edx),%edx
  803418:	85 d2                	test   %edx,%edx
  80341a:	75 47                	jne    803463 <PAL_BattleCommitAction+0x117>
  80341c:	c7 c2 e0 41 86 00    	mov    $0x8641e0,%edx
  803422:	0f b7 92 f2 06 00 00 	movzwl 0x6f2(%edx),%edx
  803429:	0f b7 d2             	movzwl %dx,%edx
  80342c:	c7 c1 e0 41 86 00    	mov    $0x8641e0,%ecx
  803432:	6b d2 3c             	imul   $0x3c,%edx,%edx
  803435:	01 ca                	add    %ecx,%edx
  803437:	83 c2 24             	add    $0x24,%edx
  80343a:	c7 02 02 00 00 00    	movl   $0x2,(%edx)
  803440:	c7 c2 e0 41 86 00    	mov    $0x8641e0,%edx
  803446:	0f b7 92 f2 06 00 00 	movzwl 0x6f2(%edx),%edx
  80344d:	0f b7 d2             	movzwl %dx,%edx
  803450:	c7 c1 e0 41 86 00    	mov    $0x8641e0,%ecx
  803456:	6b d2 3c             	imul   $0x3c,%edx,%edx
  803459:	01 ca                	add    %ecx,%edx
  80345b:	83 c2 2a             	add    $0x2a,%edx
  80345e:	66 c7 02 ff ff       	movw   $0xffff,(%edx)
  803463:	c7 c2 e0 41 86 00    	mov    $0x8641e0,%edx
  803469:	0f b7 92 f2 06 00 00 	movzwl 0x6f2(%edx),%edx
  803470:	0f b7 d2             	movzwl %dx,%edx
  803473:	c7 c1 e0 41 86 00    	mov    $0x8641e0,%ecx
  803479:	6b d2 3c             	imul   $0x3c,%edx,%edx
  80347c:	01 ca                	add    %ecx,%edx
  80347e:	83 c2 24             	add    $0x24,%edx
  803481:	8b 12                	mov    (%edx),%edx
  803483:	83 fa 03             	cmp    $0x3,%edx
  803486:	0f 85 bd 01 00 00    	jne    803649 <PAL_BattleCommitAction+0x2fd>
  80348c:	c7 c2 e0 41 86 00    	mov    $0x8641e0,%edx
  803492:	0f b7 92 f2 06 00 00 	movzwl 0x6f2(%edx),%edx
  803499:	0f b7 d2             	movzwl %dx,%edx
  80349c:	c7 c1 e0 41 86 00    	mov    $0x8641e0,%ecx
  8034a2:	6b d2 3c             	imul   $0x3c,%edx,%edx
  8034a5:	01 ca                	add    %ecx,%edx
  8034a7:	83 c2 28             	add    $0x28,%edx
  8034aa:	0f b7 12             	movzwl (%edx),%edx
  8034ad:	66 89 55 f6          	mov    %dx,-0xa(%ebp)
  8034b1:	c7 c2 98 41 86 00    	mov    $0x864198,%edx
  8034b7:	8b 12                	mov    (%edx),%edx
  8034b9:	8b 9a 4c 29 00 00    	mov    0x294c(%edx),%ebx
  8034bf:	c7 c2 98 41 86 00    	mov    $0x864198,%edx
  8034c5:	8b 32                	mov    (%edx),%esi
  8034c7:	0f b7 4d f6          	movzwl -0xa(%ebp),%ecx
  8034cb:	89 ca                	mov    %ecx,%edx
  8034cd:	01 d2                	add    %edx,%edx
  8034cf:	01 ca                	add    %ecx,%edx
  8034d1:	c1 e2 02             	shl    $0x2,%edx
  8034d4:	01 f2                	add    %esi,%edx
  8034d6:	81 c2 88 09 00 00    	add    $0x988,%edx
  8034dc:	0f b7 12             	movzwl (%edx),%edx
  8034df:	0f b7 d2             	movzwl %dx,%edx
  8034e2:	c1 e2 05             	shl    $0x5,%edx
  8034e5:	01 da                	add    %ebx,%edx
  8034e7:	0f b7 52 18          	movzwl 0x18(%edx),%edx
  8034eb:	66 89 55 f6          	mov    %dx,-0xa(%ebp)
  8034ef:	c7 c2 98 41 86 00    	mov    $0x864198,%edx
  8034f5:	8b 1a                	mov    (%edx),%ebx
  8034f7:	c7 c2 98 41 86 00    	mov    $0x864198,%edx
  8034fd:	8b 32                	mov    (%edx),%esi
  8034ff:	c7 c2 e0 41 86 00    	mov    $0x8641e0,%edx
  803505:	0f b7 92 f2 06 00 00 	movzwl 0x6f2(%edx),%edx
  80350c:	0f b7 ca             	movzwl %dx,%ecx
  80350f:	89 ca                	mov    %ecx,%edx
  803511:	c1 e2 02             	shl    $0x2,%edx
  803514:	01 ca                	add    %ecx,%edx
  803516:	01 d2                	add    %edx,%edx
  803518:	01 f2                	add    %esi,%edx
  80351a:	81 c2 f8 43 00 00    	add    $0x43f8,%edx
  803520:	0f b7 12             	movzwl (%edx),%edx
  803523:	0f b7 d2             	movzwl %dx,%edx
  803526:	81 c2 18 13 00 00    	add    $0x1318,%edx
  80352c:	0f b7 54 53 10       	movzwl 0x10(%ebx,%edx,2),%edx
  803531:	66 39 55 f6          	cmp    %dx,-0xa(%ebp)
  803535:	0f 86 11 01 00 00    	jbe    80364c <PAL_BattleCommitAction+0x300>
  80353b:	c7 c2 e0 41 86 00    	mov    $0x8641e0,%edx
  803541:	0f b7 92 f2 06 00 00 	movzwl 0x6f2(%edx),%edx
  803548:	0f b7 d2             	movzwl %dx,%edx
  80354b:	c7 c1 e0 41 86 00    	mov    $0x8641e0,%ecx
  803551:	6b d2 3c             	imul   $0x3c,%edx,%edx
  803554:	01 ca                	add    %ecx,%edx
  803556:	83 c2 28             	add    $0x28,%edx
  803559:	0f b7 12             	movzwl (%edx),%edx
  80355c:	66 89 55 f6          	mov    %dx,-0xa(%ebp)
  803560:	c7 c2 98 41 86 00    	mov    $0x864198,%edx
  803566:	8b 12                	mov    (%edx),%edx
  803568:	8b 9a 4c 29 00 00    	mov    0x294c(%edx),%ebx
  80356e:	c7 c2 98 41 86 00    	mov    $0x864198,%edx
  803574:	8b 32                	mov    (%edx),%esi
  803576:	0f b7 4d f6          	movzwl -0xa(%ebp),%ecx
  80357a:	89 ca                	mov    %ecx,%edx
  80357c:	01 d2                	add    %edx,%edx
  80357e:	01 ca                	add    %ecx,%edx
  803580:	c1 e2 02             	shl    $0x2,%edx
  803583:	01 f2                	add    %esi,%edx
  803585:	81 c2 88 09 00 00    	add    $0x988,%edx
  80358b:	0f b7 12             	movzwl (%edx),%edx
  80358e:	0f b7 d2             	movzwl %dx,%edx
  803591:	c1 e2 05             	shl    $0x5,%edx
  803594:	01 da                	add    %ebx,%edx
  803596:	0f b7 52 02          	movzwl 0x2(%edx),%edx
  80359a:	66 89 55 f6          	mov    %dx,-0xa(%ebp)
  80359e:	66 83 7d f6 04       	cmpw   $0x4,-0xa(%ebp)
  8035a3:	74 0e                	je     8035b3 <PAL_BattleCommitAction+0x267>
  8035a5:	66 83 7d f6 05       	cmpw   $0x5,-0xa(%ebp)
  8035aa:	74 07                	je     8035b3 <PAL_BattleCommitAction+0x267>
  8035ac:	66 83 7d f6 08       	cmpw   $0x8,-0xa(%ebp)
  8035b1:	75 26                	jne    8035d9 <PAL_BattleCommitAction+0x28d>
  8035b3:	c7 c2 e0 41 86 00    	mov    $0x8641e0,%edx
  8035b9:	0f b7 92 f2 06 00 00 	movzwl 0x6f2(%edx),%edx
  8035c0:	0f b7 d2             	movzwl %dx,%edx
  8035c3:	c7 c1 e0 41 86 00    	mov    $0x8641e0,%ecx
  8035c9:	6b d2 3c             	imul   $0x3c,%edx,%edx
  8035cc:	01 ca                	add    %ecx,%edx
  8035ce:	83 c2 24             	add    $0x24,%edx
  8035d1:	c7 02 01 00 00 00    	movl   $0x1,(%edx)
  8035d7:	eb 73                	jmp    80364c <PAL_BattleCommitAction+0x300>
  8035d9:	c7 c2 e0 41 86 00    	mov    $0x8641e0,%edx
  8035df:	0f b7 92 f2 06 00 00 	movzwl 0x6f2(%edx),%edx
  8035e6:	0f b7 d2             	movzwl %dx,%edx
  8035e9:	c7 c1 e0 41 86 00    	mov    $0x8641e0,%ecx
  8035ef:	6b d2 3c             	imul   $0x3c,%edx,%edx
  8035f2:	01 ca                	add    %ecx,%edx
  8035f4:	83 c2 24             	add    $0x24,%edx
  8035f7:	c7 02 02 00 00 00    	movl   $0x2,(%edx)
  8035fd:	c7 c2 e0 41 86 00    	mov    $0x8641e0,%edx
  803603:	0f b7 92 f2 06 00 00 	movzwl 0x6f2(%edx),%edx
  80360a:	0f b7 d2             	movzwl %dx,%edx
  80360d:	c7 c1 e0 41 86 00    	mov    $0x8641e0,%ecx
  803613:	6b d2 3c             	imul   $0x3c,%edx,%edx
  803616:	01 ca                	add    %ecx,%edx
  803618:	83 c2 2a             	add    $0x2a,%edx
  80361b:	0f b7 12             	movzwl (%edx),%edx
  80361e:	66 83 fa ff          	cmp    $0xffff,%dx
  803622:	75 28                	jne    80364c <PAL_BattleCommitAction+0x300>
  803624:	c7 c2 e0 41 86 00    	mov    $0x8641e0,%edx
  80362a:	0f b7 92 f2 06 00 00 	movzwl 0x6f2(%edx),%edx
  803631:	0f b7 d2             	movzwl %dx,%edx
  803634:	c7 c1 e0 41 86 00    	mov    $0x8641e0,%ecx
  80363a:	6b d2 3c             	imul   $0x3c,%edx,%edx
  80363d:	01 ca                	add    %ecx,%edx
  80363f:	83 c2 2a             	add    $0x2a,%edx
  803642:	66 c7 02 00 00       	movw   $0x0,(%edx)
  803647:	eb 03                	jmp    80364c <PAL_BattleCommitAction+0x300>
  803649:	90                   	nop
  80364a:	eb 01                	jmp    80364d <PAL_BattleCommitAction+0x301>
  80364c:	90                   	nop
  80364d:	c7 c2 e0 41 86 00    	mov    $0x8641e0,%edx
  803653:	0f b7 92 f2 06 00 00 	movzwl 0x6f2(%edx),%edx
  80365a:	0f b7 d2             	movzwl %dx,%edx
  80365d:	c7 c1 e0 41 86 00    	mov    $0x8641e0,%ecx
  803663:	6b d2 3c             	imul   $0x3c,%edx,%edx
  803666:	01 ca                	add    %ecx,%edx
  803668:	83 c2 24             	add    $0x24,%edx
  80366b:	8b 12                	mov    (%edx),%edx
  80366d:	83 fa 03             	cmp    $0x3,%edx
  803670:	0f 85 f2 00 00 00    	jne    803768 <PAL_BattleCommitAction+0x41c>
  803676:	c7 c2 e0 41 86 00    	mov    $0x8641e0,%edx
  80367c:	0f b7 92 f2 06 00 00 	movzwl 0x6f2(%edx),%edx
  803683:	0f b7 d2             	movzwl %dx,%edx
  803686:	c7 c1 e0 41 86 00    	mov    $0x8641e0,%ecx
  80368c:	6b d2 3c             	imul   $0x3c,%edx,%edx
  80368f:	01 ca                	add    %ecx,%edx
  803691:	83 c2 28             	add    $0x28,%edx
  803694:	0f b7 12             	movzwl (%edx),%edx
  803697:	66 89 55 f6          	mov    %dx,-0xa(%ebp)
  80369b:	c7 c2 98 41 86 00    	mov    $0x864198,%edx
  8036a1:	8b 12                	mov    (%edx),%edx
  8036a3:	8b 9a 4c 29 00 00    	mov    0x294c(%edx),%ebx
  8036a9:	c7 c2 98 41 86 00    	mov    $0x864198,%edx
  8036af:	8b 32                	mov    (%edx),%esi
  8036b1:	0f b7 4d f6          	movzwl -0xa(%ebp),%ecx
  8036b5:	89 ca                	mov    %ecx,%edx
  8036b7:	01 d2                	add    %edx,%edx
  8036b9:	01 ca                	add    %ecx,%edx
  8036bb:	c1 e2 02             	shl    $0x2,%edx
  8036be:	01 f2                	add    %esi,%edx
  8036c0:	81 c2 88 09 00 00    	add    $0x988,%edx
  8036c6:	0f b7 12             	movzwl (%edx),%edx
  8036c9:	0f b7 d2             	movzwl %dx,%edx
  8036cc:	c1 e2 05             	shl    $0x5,%edx
  8036cf:	01 da                	add    %ebx,%edx
  8036d1:	89 55 ec             	mov    %edx,-0x14(%ebp)
  8036d4:	8b 55 ec             	mov    -0x14(%ebp),%edx
  8036d7:	0f b7 52 18          	movzwl 0x18(%edx),%edx
  8036db:	66 89 55 f4          	mov    %dx,-0xc(%ebp)
  8036df:	66 83 7d f4 01       	cmpw   $0x1,-0xc(%ebp)
  8036e4:	75 15                	jne    8036fb <PAL_BattleCommitAction+0x3af>
  8036e6:	8b 55 ec             	mov    -0x14(%ebp),%edx
  8036e9:	0f b7 52 02          	movzwl 0x2(%edx),%edx
  8036ed:	66 83 fa 09          	cmp    $0x9,%dx
  8036f1:	75 46                	jne    803739 <PAL_BattleCommitAction+0x3ed>
  8036f3:	66 c7 45 f4 af 00    	movw   $0xaf,-0xc(%ebp)
  8036f9:	eb 3e                	jmp    803739 <PAL_BattleCommitAction+0x3ed>
  8036fb:	8b 55 ec             	mov    -0x14(%ebp),%edx
  8036fe:	0f b7 52 02          	movzwl 0x2(%edx),%edx
  803702:	66 83 fa 04          	cmp    $0x4,%dx
  803706:	74 1a                	je     803722 <PAL_BattleCommitAction+0x3d6>
  803708:	8b 55 ec             	mov    -0x14(%ebp),%edx
  80370b:	0f b7 52 02          	movzwl 0x2(%edx),%edx
  80370f:	66 83 fa 05          	cmp    $0x5,%dx
  803713:	74 0d                	je     803722 <PAL_BattleCommitAction+0x3d6>
  803715:	8b 55 ec             	mov    -0x14(%ebp),%edx
  803718:	0f b7 52 02          	movzwl 0x2(%edx),%edx
  80371c:	66 83 fa 08          	cmp    $0x8,%dx
  803720:	75 17                	jne    803739 <PAL_BattleCommitAction+0x3ed>
  803722:	0f b7 55 f4          	movzwl -0xc(%ebp),%edx
  803726:	0f b7 d2             	movzwl %dx,%edx
  803729:	69 d2 ab aa 00 00    	imul   $0xaaab,%edx,%edx
  80372f:	c1 ea 10             	shr    $0x10,%edx
  803732:	66 d1 ea             	shr    %dx
  803735:	66 89 55 f4          	mov    %dx,-0xc(%ebp)
  803739:	0f b7 55 f4          	movzwl -0xc(%ebp),%edx
  80373d:	8d 4a 05             	lea    0x5(%edx),%ecx
  803740:	c7 c2 e0 41 86 00    	mov    $0x8641e0,%edx
  803746:	0f b7 92 f2 06 00 00 	movzwl 0x6f2(%edx),%edx
  80374d:	0f b7 d2             	movzwl %dx,%edx
  803750:	89 4d e4             	mov    %ecx,-0x1c(%ebp)
  803753:	db 45 e4             	fildl  -0x1c(%ebp)
  803756:	c7 c1 e0 41 86 00    	mov    $0x8641e0,%ecx
  80375c:	6b d2 3c             	imul   $0x3c,%edx,%edx
  80375f:	01 ca                	add    %ecx,%edx
  803761:	83 c2 2c             	add    $0x2c,%edx
  803764:	d9 1a                	fstps  (%edx)
  803766:	eb 23                	jmp    80378b <PAL_BattleCommitAction+0x43f>
  803768:	c7 c2 e0 41 86 00    	mov    $0x8641e0,%edx
  80376e:	0f b7 92 f2 06 00 00 	movzwl 0x6f2(%edx),%edx
  803775:	0f b7 d2             	movzwl %dx,%edx
  803778:	c7 c1 e0 41 86 00    	mov    $0x8641e0,%ecx
  80377e:	6b d2 3c             	imul   $0x3c,%edx,%edx
  803781:	01 ca                	add    %ecx,%edx
  803783:	83 c2 2c             	add    $0x2c,%edx
  803786:	d9 ee                	fldz   
  803788:	d9 1a                	fstps  (%edx)
  80378a:	90                   	nop
  80378b:	c7 c2 e0 41 86 00    	mov    $0x8641e0,%edx
  803791:	0f b7 92 f2 06 00 00 	movzwl 0x6f2(%edx),%edx
  803798:	0f b7 d2             	movzwl %dx,%edx
  80379b:	c7 c1 e0 41 86 00    	mov    $0x8641e0,%ecx
  8037a1:	6b d2 3c             	imul   $0x3c,%edx,%edx
  8037a4:	01 ca                	add    %ecx,%edx
  8037a6:	83 c2 20             	add    $0x20,%edx
  8037a9:	c7 02 02 00 00 00    	movl   $0x2,(%edx)
  8037af:	c7 c2 e0 41 86 00    	mov    $0x8641e0,%edx
  8037b5:	c7 82 e4 04 00 00 00 	movl   $0x0,0x4e4(%edx)
  8037bc:	00 00 00 
  8037bf:	c7 c2 e0 41 86 00    	mov    $0x8641e0,%edx
  8037c5:	0f b7 92 f2 06 00 00 	movzwl 0x6f2(%edx),%edx
  8037cc:	0f b7 d2             	movzwl %dx,%edx
  8037cf:	c7 c1 e0 41 86 00    	mov    $0x8641e0,%ecx
  8037d5:	6b d2 3c             	imul   $0x3c,%edx,%edx
  8037d8:	01 ca                	add    %ecx,%edx
  8037da:	83 c2 2c             	add    $0x2c,%edx
  8037dd:	d9 02                	flds   (%edx)
  8037df:	d9 ee                	fldz   
  8037e1:	df f1                	fcomip %st(1),%st
  8037e3:	dd d8                	fstp   %st(0)
  8037e5:	0f 82 8c 00 00 00    	jb     803877 <PAL_BattleCommitAction+0x52b>
  8037eb:	66 c7 45 f2 ff ff    	movw   $0xffff,-0xe(%ebp)
  8037f1:	66 c7 45 f6 00 00    	movw   $0x0,-0xa(%ebp)
  8037f7:	eb 3f                	jmp    803838 <PAL_BattleCommitAction+0x4ec>
  8037f9:	0f b7 55 f6          	movzwl -0xa(%ebp),%edx
  8037fd:	c7 c1 e0 41 86 00    	mov    $0x8641e0,%ecx
  803803:	6b d2 3c             	imul   $0x3c,%edx,%edx
  803806:	01 ca                	add    %ecx,%edx
  803808:	83 c2 38             	add    $0x38,%edx
  80380b:	0f b7 12             	movzwl (%edx),%edx
  80380e:	66 39 55 f2          	cmp    %dx,-0xe(%ebp)
  803812:	7d 19                	jge    80382d <PAL_BattleCommitAction+0x4e1>
  803814:	0f b7 55 f6          	movzwl -0xa(%ebp),%edx
  803818:	c7 c1 e0 41 86 00    	mov    $0x8641e0,%ecx
  80381e:	6b d2 3c             	imul   $0x3c,%edx,%edx
  803821:	01 ca                	add    %ecx,%edx
  803823:	83 c2 38             	add    $0x38,%edx
  803826:	0f b7 12             	movzwl (%edx),%edx
  803829:	66 89 55 f2          	mov    %dx,-0xe(%ebp)
  80382d:	0f b7 55 f6          	movzwl -0xa(%ebp),%edx
  803831:	83 c2 01             	add    $0x1,%edx
  803834:	66 89 55 f6          	mov    %dx,-0xa(%ebp)
  803838:	c7 c2 98 41 86 00    	mov    $0x864198,%edx
  80383e:	8b 12                	mov    (%edx),%edx
  803840:	0f b7 92 f6 43 00 00 	movzwl 0x43f6(%edx),%edx
  803847:	66 39 55 f6          	cmp    %dx,-0xa(%ebp)
  80384b:	76 ac                	jbe    8037f9 <PAL_BattleCommitAction+0x4ad>
  80384d:	0f b7 55 f2          	movzwl -0xe(%ebp),%edx
  803851:	8d 5a 01             	lea    0x1(%edx),%ebx
  803854:	c7 c2 e0 41 86 00    	mov    $0x8641e0,%edx
  80385a:	0f b7 92 f2 06 00 00 	movzwl 0x6f2(%edx),%edx
  803861:	0f b7 ca             	movzwl %dx,%ecx
  803864:	c7 c2 e0 41 86 00    	mov    $0x8641e0,%edx
  80386a:	6b c1 3c             	imul   $0x3c,%ecx,%eax
  80386d:	01 d0                	add    %edx,%eax
  80386f:	83 c0 38             	add    $0x38,%eax
  803872:	66 89 18             	mov    %bx,(%eax)
  803875:	eb 23                	jmp    80389a <PAL_BattleCommitAction+0x54e>
  803877:	c7 c2 e0 41 86 00    	mov    $0x8641e0,%edx
  80387d:	0f b7 92 f2 06 00 00 	movzwl 0x6f2(%edx),%edx
  803884:	0f b7 ca             	movzwl %dx,%ecx
  803887:	c7 c2 e0 41 86 00    	mov    $0x8641e0,%edx
  80388d:	6b c1 3c             	imul   $0x3c,%ecx,%eax
  803890:	01 d0                	add    %edx,%eax
  803892:	83 c0 38             	add    $0x38,%eax
  803895:	66 c7 00 ff ff       	movw   $0xffff,(%eax)
  80389a:	90                   	nop
  80389b:	83 c4 14             	add    $0x14,%esp
  80389e:	5b                   	pop    %ebx
  80389f:	5e                   	pop    %esi
  8038a0:	5d                   	pop    %ebp
  8038a1:	c3                   	ret    

008038a2 <PAL_BattleShowPlayerAttackAnim>:
  8038a2:	55                   	push   %ebp
  8038a3:	89 e5                	mov    %esp,%ebp
  8038a5:	57                   	push   %edi
  8038a6:	56                   	push   %esi
  8038a7:	53                   	push   %ebx
  8038a8:	83 ec 4c             	sub    $0x4c,%esp
  8038ab:	e8 67 c9 ff ff       	call   800217 <__x86.get_pc_thunk.bx>
  8038b0:	81 c3 50 87 04 00    	add    $0x48750,%ebx
  8038b6:	8b 45 08             	mov    0x8(%ebp),%eax
  8038b9:	66 89 45 b4          	mov    %ax,-0x4c(%ebp)
  8038bd:	c7 c0 98 41 86 00    	mov    $0x864198,%eax
  8038c3:	8b 08                	mov    (%eax),%ecx
  8038c5:	0f b7 55 b4          	movzwl -0x4c(%ebp),%edx
  8038c9:	89 d0                	mov    %edx,%eax
  8038cb:	c1 e0 02             	shl    $0x2,%eax
  8038ce:	01 d0                	add    %edx,%eax
  8038d0:	01 c0                	add    %eax,%eax
  8038d2:	01 c8                	add    %ecx,%eax
  8038d4:	05 f8 43 00 00       	add    $0x43f8,%eax
  8038d9:	0f b7 00             	movzwl (%eax),%eax
  8038dc:	66 89 45 be          	mov    %ax,-0x42(%ebp)
  8038e0:	0f b7 45 b4          	movzwl -0x4c(%ebp),%eax
  8038e4:	c7 c2 e0 41 86 00    	mov    $0x8641e0,%edx
  8038ea:	6b c0 3c             	imul   $0x3c,%eax,%eax
  8038ed:	01 d0                	add    %edx,%eax
  8038ef:	83 c0 2a             	add    $0x2a,%eax
  8038f2:	0f b7 00             	movzwl (%eax),%eax
  8038f5:	66 89 45 bc          	mov    %ax,-0x44(%ebp)
  8038f9:	c7 45 d8 00 00 00 00 	movl   $0x0,-0x28(%ebp)
  803900:	c7 45 d4 00 00 00 00 	movl   $0x0,-0x2c(%ebp)
  803907:	c7 45 d0 00 00 00 00 	movl   $0x0,-0x30(%ebp)
  80390e:	c7 45 c4 00 00 00 00 	movl   $0x0,-0x3c(%ebp)
  803915:	66 83 7d bc ff       	cmpw   $0xffff,-0x44(%ebp)
  80391a:	0f 84 aa 00 00 00    	je     8039ca <PAL_BattleShowPlayerAttackAnim+0x128>
  803920:	0f bf 45 bc          	movswl -0x44(%ebp),%eax
  803924:	c7 c2 e0 41 86 00    	mov    $0x8641e0,%edx
  80392a:	69 c0 cc 00 00 00    	imul   $0xcc,%eax,%eax
  803930:	01 d0                	add    %edx,%eax
  803932:	05 58 01 00 00       	add    $0x158,%eax
  803937:	8b 00                	mov    (%eax),%eax
  803939:	98                   	cwtl   
  80393a:	89 45 d8             	mov    %eax,-0x28(%ebp)
  80393d:	0f bf 45 bc          	movswl -0x44(%ebp),%eax
  803941:	c7 c2 e0 41 86 00    	mov    $0x8641e0,%edx
  803947:	69 c0 cc 00 00 00    	imul   $0xcc,%eax,%eax
  80394d:	01 d0                	add    %edx,%eax
  80394f:	05 58 01 00 00       	add    $0x158,%eax
  803954:	8b 00                	mov    (%eax),%eax
  803956:	c1 e8 10             	shr    $0x10,%eax
  803959:	98                   	cwtl   
  80395a:	89 45 d4             	mov    %eax,-0x2c(%ebp)
  80395d:	0f bf 45 bc          	movswl -0x44(%ebp),%eax
  803961:	c7 c2 e0 41 86 00    	mov    $0x8641e0,%edx
  803967:	69 c0 cc 00 00 00    	imul   $0xcc,%eax,%eax
  80396d:	01 d0                	add    %edx,%eax
  80396f:	05 60 01 00 00       	add    $0x160,%eax
  803974:	0f b7 00             	movzwl (%eax),%eax
  803977:	0f b7 d0             	movzwl %ax,%edx
  80397a:	0f bf 45 bc          	movswl -0x44(%ebp),%eax
  80397e:	c7 c1 e0 41 86 00    	mov    $0x8641e0,%ecx
  803984:	69 c0 cc 00 00 00    	imul   $0xcc,%eax,%eax
  80398a:	01 c8                	add    %ecx,%eax
  80398c:	05 54 01 00 00       	add    $0x154,%eax
  803991:	8b 00                	mov    (%eax),%eax
  803993:	83 ec 08             	sub    $0x8,%esp
  803996:	52                   	push   %edx
  803997:	50                   	push   %eax
  803998:	e8 fa c0 02 00       	call   82fa97 <PAL_SpriteGetFrame>
  80399d:	83 c4 10             	add    $0x10,%esp
  8039a0:	83 ec 0c             	sub    $0xc,%esp
  8039a3:	50                   	push   %eax
  8039a4:	e8 47 c0 02 00       	call   82f9f0 <PAL_RLEGetHeight>
  8039a9:	83 c4 10             	add    $0x10,%esp
  8039ac:	89 45 d0             	mov    %eax,-0x30(%ebp)
  8039af:	66 83 7d bc 02       	cmpw   $0x2,-0x44(%ebp)
  8039b4:	7e 22                	jle    8039d8 <PAL_BattleShowPlayerAttackAnim+0x136>
  8039b6:	0f bf 55 bc          	movswl -0x44(%ebp),%edx
  8039ba:	0f b7 45 b4          	movzwl -0x4c(%ebp),%eax
  8039be:	29 c2                	sub    %eax,%edx
  8039c0:	89 d0                	mov    %edx,%eax
  8039c2:	c1 e0 03             	shl    $0x3,%eax
  8039c5:	89 45 c4             	mov    %eax,-0x3c(%ebp)
  8039c8:	eb 0e                	jmp    8039d8 <PAL_BattleShowPlayerAttackAnim+0x136>
  8039ca:	c7 45 d8 96 00 00 00 	movl   $0x96,-0x28(%ebp)
  8039d1:	c7 45 d4 64 00 00 00 	movl   $0x64,-0x2c(%ebp)
  8039d8:	c7 c0 98 41 86 00    	mov    $0x864198,%eax
  8039de:	8b 30                	mov    (%eax),%esi
  8039e0:	0f b7 45 be          	movzwl -0x42(%ebp),%eax
  8039e4:	83 ec 0c             	sub    $0xc,%esp
  8039e7:	50                   	push   %eax
  8039e8:	e8 e9 ad 02 00       	call   82e7d6 <PAL_GetPlayerBattleSprite>
  8039ed:	83 c4 10             	add    $0x10,%esp
  8039f0:	0f b7 c0             	movzwl %ax,%eax
  8039f3:	0f b7 84 86 92 2a 00 	movzwl 0x2a92(%esi,%eax,4),%eax
  8039fa:	00 
  8039fb:	0f b7 c0             	movzwl %ax,%eax
  8039fe:	89 45 e4             	mov    %eax,-0x1c(%ebp)
  803a01:	8b 55 e4             	mov    -0x1c(%ebp),%edx
  803a04:	89 d0                	mov    %edx,%eax
  803a06:	01 c0                	add    %eax,%eax
  803a08:	01 d0                	add    %edx,%eax
  803a0a:	89 45 e4             	mov    %eax,-0x1c(%ebp)
  803a0d:	c7 c0 98 41 86 00    	mov    $0x864198,%eax
  803a13:	8b 00                	mov    (%eax),%eax
  803a15:	0f b7 55 be          	movzwl -0x42(%ebp),%edx
  803a19:	81 c2 10 13 00 00    	add    $0x1310,%edx
  803a1f:	0f b7 44 50 14       	movzwl 0x14(%eax,%edx,2),%eax
  803a24:	66 85 c0             	test   %ax,%ax
  803a27:	74 58                	je     803a81 <PAL_BattleShowPlayerAttackAnim+0x1df>
  803a29:	83 7d 0c 00          	cmpl   $0x0,0xc(%ebp)
  803a2d:	75 2a                	jne    803a59 <PAL_BattleShowPlayerAttackAnim+0x1b7>
  803a2f:	c7 c0 98 41 86 00    	mov    $0x864198,%eax
  803a35:	8b 00                	mov    (%eax),%eax
  803a37:	0f b7 55 be          	movzwl -0x42(%ebp),%edx
  803a3b:	81 c2 78 14 00 00    	add    $0x1478,%edx
  803a41:	0f b7 44 50 14       	movzwl 0x14(%eax,%edx,2),%eax
  803a46:	0f b7 c0             	movzwl %ax,%eax
  803a49:	83 ec 08             	sub    $0x8,%esp
  803a4c:	6a 00                	push   $0x0
  803a4e:	50                   	push   %eax
  803a4f:	e8 35 d0 00 00       	call   810a89 <SOUND_PlayChannel>
  803a54:	83 c4 10             	add    $0x10,%esp
  803a57:	eb 28                	jmp    803a81 <PAL_BattleShowPlayerAttackAnim+0x1df>
  803a59:	c7 c0 98 41 86 00    	mov    $0x864198,%eax
  803a5f:	8b 00                	mov    (%eax),%eax
  803a61:	0f b7 55 be          	movzwl -0x42(%ebp),%edx
  803a65:	81 c2 88 14 00 00    	add    $0x1488,%edx
  803a6b:	0f b7 44 50 0c       	movzwl 0xc(%eax,%edx,2),%eax
  803a70:	0f b7 c0             	movzwl %ax,%eax
  803a73:	83 ec 08             	sub    $0x8,%esp
  803a76:	6a 00                	push   $0x0
  803a78:	50                   	push   %eax
  803a79:	e8 0b d0 00 00       	call   810a89 <SOUND_PlayChannel>
  803a7e:	83 c4 10             	add    $0x10,%esp
  803a81:	8b 45 d8             	mov    -0x28(%ebp),%eax
  803a84:	2b 45 c4             	sub    -0x3c(%ebp),%eax
  803a87:	83 c0 40             	add    $0x40,%eax
  803a8a:	89 45 cc             	mov    %eax,-0x34(%ebp)
  803a8d:	8b 55 d4             	mov    -0x2c(%ebp),%edx
  803a90:	8b 45 c4             	mov    -0x3c(%ebp),%eax
  803a93:	01 d0                	add    %edx,%eax
  803a95:	83 c0 14             	add    $0x14,%eax
  803a98:	89 45 c8             	mov    %eax,-0x38(%ebp)
  803a9b:	0f b7 45 b4          	movzwl -0x4c(%ebp),%eax
  803a9f:	c7 c2 e0 41 86 00    	mov    $0x8641e0,%edx
  803aa5:	6b c0 3c             	imul   $0x3c,%eax,%eax
  803aa8:	01 d0                	add    %edx,%eax
  803aaa:	83 c0 1c             	add    $0x1c,%eax
  803aad:	66 c7 00 08 00       	movw   $0x8,(%eax)
  803ab2:	8b 45 c8             	mov    -0x38(%ebp),%eax
  803ab5:	0f b7 c0             	movzwl %ax,%eax
  803ab8:	c1 e0 10             	shl    $0x10,%eax
  803abb:	89 c1                	mov    %eax,%ecx
  803abd:	8b 45 cc             	mov    -0x34(%ebp),%eax
  803ac0:	0f b7 d0             	movzwl %ax,%edx
  803ac3:	0f b7 45 b4          	movzwl -0x4c(%ebp),%eax
  803ac7:	09 ca                	or     %ecx,%edx
  803ac9:	c7 c1 e0 41 86 00    	mov    $0x8641e0,%ecx
  803acf:	6b c0 3c             	imul   $0x3c,%eax,%eax
  803ad2:	01 c8                	add    %ecx,%eax
  803ad4:	83 c0 14             	add    $0x14,%eax
  803ad7:	89 10                	mov    %edx,(%eax)
  803ad9:	83 ec 04             	sub    $0x4,%esp
  803adc:	6a 01                	push   $0x1
  803ade:	6a 00                	push   $0x0
  803ae0:	6a 02                	push   $0x2
  803ae2:	e8 90 d6 ff ff       	call   801177 <PAL_BattleDelay>
  803ae7:	83 c4 10             	add    $0x10,%esp
  803aea:	83 6d cc 0a          	subl   $0xa,-0x34(%ebp)
  803aee:	83 6d c8 02          	subl   $0x2,-0x38(%ebp)
  803af2:	8b 45 c8             	mov    -0x38(%ebp),%eax
  803af5:	0f b7 c0             	movzwl %ax,%eax
  803af8:	c1 e0 10             	shl    $0x10,%eax
  803afb:	89 c1                	mov    %eax,%ecx
  803afd:	8b 45 cc             	mov    -0x34(%ebp),%eax
  803b00:	0f b7 d0             	movzwl %ax,%edx
  803b03:	0f b7 45 b4          	movzwl -0x4c(%ebp),%eax
  803b07:	09 ca                	or     %ecx,%edx
  803b09:	c7 c1 e0 41 86 00    	mov    $0x8641e0,%ecx
  803b0f:	6b c0 3c             	imul   $0x3c,%eax,%eax
  803b12:	01 c8                	add    %ecx,%eax
  803b14:	83 c0 14             	add    $0x14,%eax
  803b17:	89 10                	mov    %edx,(%eax)
  803b19:	83 ec 04             	sub    $0x4,%esp
  803b1c:	6a 01                	push   $0x1
  803b1e:	6a 00                	push   $0x0
  803b20:	6a 01                	push   $0x1
  803b22:	e8 50 d6 ff ff       	call   801177 <PAL_BattleDelay>
  803b27:	83 c4 10             	add    $0x10,%esp
  803b2a:	0f b7 45 b4          	movzwl -0x4c(%ebp),%eax
  803b2e:	c7 c2 e0 41 86 00    	mov    $0x8641e0,%edx
  803b34:	6b c0 3c             	imul   $0x3c,%eax,%eax
  803b37:	01 d0                	add    %edx,%eax
  803b39:	83 c0 1c             	add    $0x1c,%eax
  803b3c:	66 c7 00 09 00       	movw   $0x9,(%eax)
  803b41:	83 6d cc 10          	subl   $0x10,-0x34(%ebp)
  803b45:	83 6d c8 04          	subl   $0x4,-0x38(%ebp)
  803b49:	c7 c0 98 41 86 00    	mov    $0x864198,%eax
  803b4f:	8b 00                	mov    (%eax),%eax
  803b51:	0f b7 55 be          	movzwl -0x42(%ebp),%edx
  803b55:	81 c2 80 14 00 00    	add    $0x1480,%edx
  803b5b:	0f b7 44 50 10       	movzwl 0x10(%eax,%edx,2),%eax
  803b60:	0f b7 c0             	movzwl %ax,%eax
  803b63:	83 ec 08             	sub    $0x8,%esp
  803b66:	6a 00                	push   $0x0
  803b68:	50                   	push   %eax
  803b69:	e8 1b cf 00 00       	call   810a89 <SOUND_PlayChannel>
  803b6e:	83 c4 10             	add    $0x10,%esp
  803b71:	8b 45 d8             	mov    -0x28(%ebp),%eax
  803b74:	89 45 cc             	mov    %eax,-0x34(%ebp)
  803b77:	8b 4d d0             	mov    -0x30(%ebp),%ecx
  803b7a:	ba 56 55 55 55       	mov    $0x55555556,%edx
  803b7f:	89 c8                	mov    %ecx,%eax
  803b81:	f7 ea                	imul   %edx
  803b83:	89 c8                	mov    %ecx,%eax
  803b85:	c1 f8 1f             	sar    $0x1f,%eax
  803b88:	29 d0                	sub    %edx,%eax
  803b8a:	89 c2                	mov    %eax,%edx
  803b8c:	8b 45 d4             	mov    -0x2c(%ebp),%eax
  803b8f:	01 d0                	add    %edx,%eax
  803b91:	83 c0 0a             	add    $0xa,%eax
  803b94:	89 45 c8             	mov    %eax,-0x38(%ebp)
  803b97:	e8 63 25 01 00       	call   8160ff <SDL_GetTicks>
  803b9c:	83 c0 28             	add    $0x28,%eax
  803b9f:	89 45 c0             	mov    %eax,-0x40(%ebp)
  803ba2:	c7 45 e0 00 00 00 00 	movl   $0x0,-0x20(%ebp)
  803ba9:	e9 96 03 00 00       	jmp    803f44 <PAL_BattleShowPlayerAttackAnim+0x6a2>
  803bae:	8b 45 e4             	mov    -0x1c(%ebp),%eax
  803bb1:	8d 50 01             	lea    0x1(%eax),%edx
  803bb4:	89 55 e4             	mov    %edx,-0x1c(%ebp)
  803bb7:	c7 c2 e0 41 86 00    	mov    $0x8641e0,%edx
  803bbd:	8b 92 04 08 00 00    	mov    0x804(%edx),%edx
  803bc3:	83 ec 08             	sub    $0x8,%esp
  803bc6:	50                   	push   %eax
  803bc7:	52                   	push   %edx
  803bc8:	e8 ca be 02 00       	call   82fa97 <PAL_SpriteGetFrame>
  803bcd:	83 c4 10             	add    $0x10,%esp
  803bd0:	89 45 b8             	mov    %eax,-0x48(%ebp)
  803bd3:	e8 99 59 02 00       	call   829571 <PAL_ProcessEvent>
  803bd8:	eb 12                	jmp    803bec <PAL_BattleShowPlayerAttackAnim+0x34a>
  803bda:	e8 92 59 02 00       	call   829571 <PAL_ProcessEvent>
  803bdf:	83 ec 0c             	sub    $0xc,%esp
  803be2:	6a 01                	push   $0x1
  803be4:	e8 34 25 01 00       	call   81611d <SDL_Delay>
  803be9:	83 c4 10             	add    $0x10,%esp
  803bec:	e8 0e 25 01 00       	call   8160ff <SDL_GetTicks>
  803bf1:	39 45 c0             	cmp    %eax,-0x40(%ebp)
  803bf4:	73 e4                	jae    803bda <PAL_BattleShowPlayerAttackAnim+0x338>
  803bf6:	e8 04 25 01 00       	call   8160ff <SDL_GetTicks>
  803bfb:	83 c0 28             	add    $0x28,%eax
  803bfe:	89 45 c0             	mov    %eax,-0x40(%ebp)
  803c01:	c7 45 dc 00 00 00 00 	movl   $0x0,-0x24(%ebp)
  803c08:	e9 b6 01 00 00       	jmp    803dc3 <PAL_BattleShowPlayerAttackAnim+0x521>
  803c0d:	c7 c2 e0 41 86 00    	mov    $0x8641e0,%edx
  803c13:	8b 45 dc             	mov    -0x24(%ebp),%eax
  803c16:	69 c0 cc 00 00 00    	imul   $0xcc,%eax,%eax
  803c1c:	01 d0                	add    %edx,%eax
  803c1e:	05 b4 00 00 00       	add    $0xb4,%eax
  803c23:	0f b7 00             	movzwl (%eax),%eax
  803c26:	66 85 c0             	test   %ax,%ax
  803c29:	0f 84 8f 01 00 00    	je     803dbe <PAL_BattleShowPlayerAttackAnim+0x51c>
  803c2f:	c7 c2 e0 41 86 00    	mov    $0x8641e0,%edx
  803c35:	8b 45 dc             	mov    -0x24(%ebp),%eax
  803c38:	69 c0 cc 00 00 00    	imul   $0xcc,%eax,%eax
  803c3e:	01 d0                	add    %edx,%eax
  803c40:	05 00 01 00 00       	add    $0x100,%eax
  803c45:	0f b7 00             	movzwl (%eax),%eax
  803c48:	66 85 c0             	test   %ax,%ax
  803c4b:	0f 85 6d 01 00 00    	jne    803dbe <PAL_BattleShowPlayerAttackAnim+0x51c>
  803c51:	c7 c2 e0 41 86 00    	mov    $0x8641e0,%edx
  803c57:	8b 45 dc             	mov    -0x24(%ebp),%eax
  803c5a:	69 c0 cc 00 00 00    	imul   $0xcc,%eax,%eax
  803c60:	01 d0                	add    %edx,%eax
  803c62:	05 00 01 00 00       	add    $0x100,%eax
  803c67:	0f b7 00             	movzwl (%eax),%eax
  803c6a:	66 85 c0             	test   %ax,%ax
  803c6d:	0f 85 4b 01 00 00    	jne    803dbe <PAL_BattleShowPlayerAttackAnim+0x51c>
  803c73:	c7 c2 e0 41 86 00    	mov    $0x8641e0,%edx
  803c79:	8b 45 dc             	mov    -0x24(%ebp),%eax
  803c7c:	69 c0 cc 00 00 00    	imul   $0xcc,%eax,%eax
  803c82:	01 d0                	add    %edx,%eax
  803c84:	05 bc 00 00 00       	add    $0xbc,%eax
  803c89:	0f b7 00             	movzwl (%eax),%eax
  803c8c:	8d 50 ff             	lea    -0x1(%eax),%edx
  803c8f:	c7 c1 e0 41 86 00    	mov    $0x8641e0,%ecx
  803c95:	8b 45 dc             	mov    -0x24(%ebp),%eax
  803c98:	69 c0 cc 00 00 00    	imul   $0xcc,%eax,%eax
  803c9e:	01 c8                	add    %ecx,%eax
  803ca0:	05 bc 00 00 00       	add    $0xbc,%eax
  803ca5:	66 89 10             	mov    %dx,(%eax)
  803ca8:	c7 c2 e0 41 86 00    	mov    $0x8641e0,%edx
  803cae:	8b 45 dc             	mov    -0x24(%ebp),%eax
  803cb1:	69 c0 cc 00 00 00    	imul   $0xcc,%eax,%eax
  803cb7:	01 d0                	add    %edx,%eax
  803cb9:	05 bc 00 00 00       	add    $0xbc,%eax
  803cbe:	0f b7 00             	movzwl (%eax),%eax
  803cc1:	66 85 c0             	test   %ax,%ax
  803cc4:	0f 85 a0 00 00 00    	jne    803d6a <PAL_BattleShowPlayerAttackAnim+0x4c8>
  803cca:	c7 c2 e0 41 86 00    	mov    $0x8641e0,%edx
  803cd0:	8b 45 dc             	mov    -0x24(%ebp),%eax
  803cd3:	69 c0 cc 00 00 00    	imul   $0xcc,%eax,%eax
  803cd9:	01 d0                	add    %edx,%eax
  803cdb:	05 60 01 00 00       	add    $0x160,%eax
  803ce0:	0f b7 00             	movzwl (%eax),%eax
  803ce3:	8d 50 01             	lea    0x1(%eax),%edx
  803ce6:	c7 c1 e0 41 86 00    	mov    $0x8641e0,%ecx
  803cec:	8b 45 dc             	mov    -0x24(%ebp),%eax
  803cef:	69 c0 cc 00 00 00    	imul   $0xcc,%eax,%eax
  803cf5:	01 c8                	add    %ecx,%eax
  803cf7:	05 60 01 00 00       	add    $0x160,%eax
  803cfc:	66 89 10             	mov    %dx,(%eax)
  803cff:	c7 c0 98 41 86 00    	mov    $0x864198,%eax
  803d05:	8b 00                	mov    (%eax),%eax
  803d07:	8b 88 b8 25 00 00    	mov    0x25b8(%eax),%ecx
  803d0d:	c7 c0 98 41 86 00    	mov    $0x864198,%eax
  803d13:	8b 30                	mov    (%eax),%esi
  803d15:	c7 c2 e0 41 86 00    	mov    $0x8641e0,%edx
  803d1b:	8b 45 dc             	mov    -0x24(%ebp),%eax
  803d1e:	69 c0 cc 00 00 00    	imul   $0xcc,%eax,%eax
  803d24:	01 d0                	add    %edx,%eax
  803d26:	05 b4 00 00 00       	add    $0xb4,%eax
  803d2b:	0f b7 00             	movzwl (%eax),%eax
  803d2e:	0f b7 d0             	movzwl %ax,%edx
  803d31:	89 d0                	mov    %edx,%eax
  803d33:	01 c0                	add    %eax,%eax
  803d35:	01 d0                	add    %edx,%eax
  803d37:	c1 e0 02             	shl    $0x2,%eax
  803d3a:	01 f0                	add    %esi,%eax
  803d3c:	05 88 09 00 00       	add    $0x988,%eax
  803d41:	0f b7 00             	movzwl (%eax),%eax
  803d44:	0f b7 c0             	movzwl %ax,%eax
  803d47:	6b c0 46             	imul   $0x46,%eax,%eax
  803d4a:	01 c8                	add    %ecx,%eax
  803d4c:	0f b7 40 06          	movzwl 0x6(%eax),%eax
  803d50:	c7 c1 e0 41 86 00    	mov    $0x8641e0,%ecx
  803d56:	8b 55 dc             	mov    -0x24(%ebp),%edx
  803d59:	69 d2 cc 00 00 00    	imul   $0xcc,%edx,%edx
  803d5f:	01 ca                	add    %ecx,%edx
  803d61:	81 c2 bc 00 00 00    	add    $0xbc,%edx
  803d67:	66 89 02             	mov    %ax,(%edx)
  803d6a:	c7 c2 e0 41 86 00    	mov    $0x8641e0,%edx
  803d70:	8b 45 dc             	mov    -0x24(%ebp),%eax
  803d73:	69 c0 cc 00 00 00    	imul   $0xcc,%eax,%eax
  803d79:	01 d0                	add    %edx,%eax
  803d7b:	05 60 01 00 00       	add    $0x160,%eax
  803d80:	0f b7 10             	movzwl (%eax),%edx
  803d83:	c7 c1 e0 41 86 00    	mov    $0x8641e0,%ecx
  803d89:	8b 45 dc             	mov    -0x24(%ebp),%eax
  803d8c:	69 c0 cc 00 00 00    	imul   $0xcc,%eax,%eax
  803d92:	01 c8                	add    %ecx,%eax
  803d94:	05 b6 00 00 00       	add    $0xb6,%eax
  803d99:	0f b7 00             	movzwl (%eax),%eax
  803d9c:	66 39 c2             	cmp    %ax,%dx
  803d9f:	72 1e                	jb     803dbf <PAL_BattleShowPlayerAttackAnim+0x51d>
  803da1:	c7 c2 e0 41 86 00    	mov    $0x8641e0,%edx
  803da7:	8b 45 dc             	mov    -0x24(%ebp),%eax
  803daa:	69 c0 cc 00 00 00    	imul   $0xcc,%eax,%eax
  803db0:	01 d0                	add    %edx,%eax
  803db2:	05 60 01 00 00       	add    $0x160,%eax
  803db7:	66 c7 00 00 00       	movw   $0x0,(%eax)
  803dbc:	eb 01                	jmp    803dbf <PAL_BattleShowPlayerAttackAnim+0x51d>
  803dbe:	90                   	nop
  803dbf:	83 45 dc 01          	addl   $0x1,-0x24(%ebp)
  803dc3:	c7 c0 e0 41 86 00    	mov    $0x8641e0,%eax
  803dc9:	0f b7 80 b0 04 00 00 	movzwl 0x4b0(%eax),%eax
  803dd0:	0f b7 c0             	movzwl %ax,%eax
  803dd3:	39 45 dc             	cmp    %eax,-0x24(%ebp)
  803dd6:	0f 8e 31 fe ff ff    	jle    803c0d <PAL_BattleShowPlayerAttackAnim+0x36b>
  803ddc:	e8 13 7f 00 00       	call   80bcf4 <PAL_BattleMakeScene>
  803de1:	c7 c0 80 41 86 00    	mov    $0x864180,%eax
  803de7:	8b 10                	mov    (%eax),%edx
  803de9:	c7 c0 e0 41 86 00    	mov    $0x8641e0,%eax
  803def:	8b 80 b4 04 00 00    	mov    0x4b4(%eax),%eax
  803df5:	6a 00                	push   $0x0
  803df7:	52                   	push   %edx
  803df8:	6a 00                	push   $0x0
  803dfa:	50                   	push   %eax
  803dfb:	e8 6d 23 01 00       	call   81616d <SDL_BlitSurface>
  803e00:	83 c4 10             	add    $0x10,%esp
  803e03:	8b 45 c8             	mov    -0x38(%ebp),%eax
  803e06:	89 c6                	mov    %eax,%esi
  803e08:	83 ec 0c             	sub    $0xc,%esp
  803e0b:	ff 75 b8             	pushl  -0x48(%ebp)
  803e0e:	e8 dd bb 02 00       	call   82f9f0 <PAL_RLEGetHeight>
  803e13:	83 c4 10             	add    $0x10,%esp
  803e16:	29 c6                	sub    %eax,%esi
  803e18:	89 f0                	mov    %esi,%eax
  803e1a:	0f b7 c0             	movzwl %ax,%eax
  803e1d:	c1 e0 10             	shl    $0x10,%eax
  803e20:	89 c6                	mov    %eax,%esi
  803e22:	8b 45 cc             	mov    -0x34(%ebp),%eax
  803e25:	89 c7                	mov    %eax,%edi
  803e27:	83 ec 0c             	sub    $0xc,%esp
  803e2a:	ff 75 b8             	pushl  -0x48(%ebp)
  803e2d:	e8 53 bb 02 00       	call   82f985 <PAL_RLEGetWidth>
  803e32:	83 c4 10             	add    $0x10,%esp
  803e35:	d1 e8                	shr    %eax
  803e37:	29 c7                	sub    %eax,%edi
  803e39:	89 f8                	mov    %edi,%eax
  803e3b:	0f b7 c0             	movzwl %ax,%eax
  803e3e:	09 c6                	or     %eax,%esi
  803e40:	89 f2                	mov    %esi,%edx
  803e42:	c7 c0 80 41 86 00    	mov    $0x864180,%eax
  803e48:	8b 00                	mov    (%eax),%eax
  803e4a:	83 ec 04             	sub    $0x4,%esp
  803e4d:	52                   	push   %edx
  803e4e:	50                   	push   %eax
  803e4f:	ff 75 b8             	pushl  -0x48(%ebp)
  803e52:	e8 b7 b3 02 00       	call   82f20e <PAL_RLEBlitToSurface>
  803e57:	83 c4 10             	add    $0x10,%esp
  803e5a:	83 6d cc 10          	subl   $0x10,-0x34(%ebp)
  803e5e:	83 45 c8 10          	addl   $0x10,-0x38(%ebp)
  803e62:	e8 94 bb 01 00       	call   81f9fb <PAL_BattleUIUpdate>
  803e67:	83 7d e0 00          	cmpl   $0x0,-0x20(%ebp)
  803e6b:	75 6e                	jne    803edb <PAL_BattleShowPlayerAttackAnim+0x639>
  803e6d:	66 83 7d bc ff       	cmpw   $0xffff,-0x44(%ebp)
  803e72:	75 40                	jne    803eb4 <PAL_BattleShowPlayerAttackAnim+0x612>
  803e74:	c7 45 dc 00 00 00 00 	movl   $0x0,-0x24(%ebp)
  803e7b:	eb 20                	jmp    803e9d <PAL_BattleShowPlayerAttackAnim+0x5fb>
  803e7d:	c7 c2 e0 41 86 00    	mov    $0x8641e0,%edx
  803e83:	8b 45 dc             	mov    -0x24(%ebp),%eax
  803e86:	69 c0 cc 00 00 00    	imul   $0xcc,%eax,%eax
  803e8c:	01 d0                	add    %edx,%eax
  803e8e:	05 7c 01 00 00       	add    $0x17c,%eax
  803e93:	c7 00 06 00 00 00    	movl   $0x6,(%eax)
  803e99:	83 45 dc 01          	addl   $0x1,-0x24(%ebp)
  803e9d:	c7 c0 e0 41 86 00    	mov    $0x8641e0,%eax
  803ea3:	0f b7 80 b0 04 00 00 	movzwl 0x4b0(%eax),%eax
  803eaa:	0f b7 c0             	movzwl %ax,%eax
  803ead:	39 45 dc             	cmp    %eax,-0x24(%ebp)
  803eb0:	7e cb                	jle    803e7d <PAL_BattleShowPlayerAttackAnim+0x5db>
  803eb2:	eb 1d                	jmp    803ed1 <PAL_BattleShowPlayerAttackAnim+0x62f>
  803eb4:	0f bf 45 bc          	movswl -0x44(%ebp),%eax
  803eb8:	c7 c2 e0 41 86 00    	mov    $0x8641e0,%edx
  803ebe:	69 c0 cc 00 00 00    	imul   $0xcc,%eax,%eax
  803ec4:	01 d0                	add    %edx,%eax
  803ec6:	05 7c 01 00 00       	add    $0x17c,%eax
  803ecb:	c7 00 06 00 00 00    	movl   $0x6,(%eax)
  803ed1:	e8 08 d7 ff ff       	call   8015de <PAL_BattleDisplayStatChange>
  803ed6:	e8 d2 d5 ff ff       	call   8014ad <PAL_BattleBackupStat>
  803edb:	83 ec 0c             	sub    $0xc,%esp
  803ede:	6a 00                	push   $0x0
  803ee0:	e8 14 6a 02 00       	call   82a8f9 <VIDEO_UpdateScreen>
  803ee5:	83 c4 10             	add    $0x10,%esp
  803ee8:	83 7d e0 01          	cmpl   $0x1,-0x20(%ebp)
  803eec:	75 52                	jne    803f40 <PAL_BattleShowPlayerAttackAnim+0x69e>
  803eee:	0f b7 45 b4          	movzwl -0x4c(%ebp),%eax
  803ef2:	c7 c2 e0 41 86 00    	mov    $0x8641e0,%edx
  803ef8:	6b c0 3c             	imul   $0x3c,%eax,%eax
  803efb:	01 d0                	add    %edx,%eax
  803efd:	83 c0 14             	add    $0x14,%eax
  803f00:	8b 00                	mov    (%eax),%eax
  803f02:	c1 e8 10             	shr    $0x10,%eax
  803f05:	83 c0 01             	add    $0x1,%eax
  803f08:	0f b7 c0             	movzwl %ax,%eax
  803f0b:	c1 e0 10             	shl    $0x10,%eax
  803f0e:	89 c1                	mov    %eax,%ecx
  803f10:	0f b7 45 b4          	movzwl -0x4c(%ebp),%eax
  803f14:	c7 c2 e0 41 86 00    	mov    $0x8641e0,%edx
  803f1a:	6b c0 3c             	imul   $0x3c,%eax,%eax
  803f1d:	01 d0                	add    %edx,%eax
  803f1f:	83 c0 14             	add    $0x14,%eax
  803f22:	8b 00                	mov    (%eax),%eax
  803f24:	83 c0 02             	add    $0x2,%eax
  803f27:	0f b7 d0             	movzwl %ax,%edx
  803f2a:	0f b7 45 b4          	movzwl -0x4c(%ebp),%eax
  803f2e:	09 ca                	or     %ecx,%edx
  803f30:	c7 c1 e0 41 86 00    	mov    $0x8641e0,%ecx
  803f36:	6b c0 3c             	imul   $0x3c,%eax,%eax
  803f39:	01 c8                	add    %ecx,%eax
  803f3b:	83 c0 14             	add    $0x14,%eax
  803f3e:	89 10                	mov    %edx,(%eax)
  803f40:	83 45 e0 01          	addl   $0x1,-0x20(%ebp)
  803f44:	83 7d e0 02          	cmpl   $0x2,-0x20(%ebp)
  803f48:	0f 8e 60 fc ff ff    	jle    803bae <PAL_BattleShowPlayerAttackAnim+0x30c>
  803f4e:	c7 45 c4 08 00 00 00 	movl   $0x8,-0x3c(%ebp)
  803f55:	c7 45 e0 00 00 00 00 	movl   $0x0,-0x20(%ebp)
  803f5c:	eb 20                	jmp    803f7e <PAL_BattleShowPlayerAttackAnim+0x6dc>
  803f5e:	c7 c2 e0 41 86 00    	mov    $0x8641e0,%edx
  803f64:	8b 45 e0             	mov    -0x20(%ebp),%eax
  803f67:	69 c0 cc 00 00 00    	imul   $0xcc,%eax,%eax
  803f6d:	01 d0                	add    %edx,%eax
  803f6f:	05 7c 01 00 00       	add    $0x17c,%eax
  803f74:	c7 00 00 00 00 00    	movl   $0x0,(%eax)
  803f7a:	83 45 e0 01          	addl   $0x1,-0x20(%ebp)
  803f7e:	c7 c0 e0 41 86 00    	mov    $0x8641e0,%eax
  803f84:	0f b7 80 b0 04 00 00 	movzwl 0x4b0(%eax),%eax
  803f8b:	0f b7 c0             	movzwl %ax,%eax
  803f8e:	39 45 e0             	cmp    %eax,-0x20(%ebp)
  803f91:	7e cb                	jle    803f5e <PAL_BattleShowPlayerAttackAnim+0x6bc>
  803f93:	66 83 7d bc ff       	cmpw   $0xffff,-0x44(%ebp)
  803f98:	0f 85 e7 00 00 00    	jne    804085 <PAL_BattleShowPlayerAttackAnim+0x7e3>
  803f9e:	c7 45 e0 00 00 00 00 	movl   $0x0,-0x20(%ebp)
  803fa5:	e9 cc 00 00 00       	jmp    804076 <PAL_BattleShowPlayerAttackAnim+0x7d4>
  803faa:	c7 45 dc 00 00 00 00 	movl   $0x0,-0x24(%ebp)
  803fb1:	e9 81 00 00 00       	jmp    804037 <PAL_BattleShowPlayerAttackAnim+0x795>
  803fb6:	c7 c2 e0 41 86 00    	mov    $0x8641e0,%edx
  803fbc:	8b 45 dc             	mov    -0x24(%ebp),%eax
  803fbf:	69 c0 cc 00 00 00    	imul   $0xcc,%eax,%eax
  803fc5:	01 d0                	add    %edx,%eax
  803fc7:	05 58 01 00 00       	add    $0x158,%eax
  803fcc:	8b 00                	mov    (%eax),%eax
  803fce:	98                   	cwtl   
  803fcf:	89 45 cc             	mov    %eax,-0x34(%ebp)
  803fd2:	c7 c2 e0 41 86 00    	mov    $0x8641e0,%edx
  803fd8:	8b 45 dc             	mov    -0x24(%ebp),%eax
  803fdb:	69 c0 cc 00 00 00    	imul   $0xcc,%eax,%eax
  803fe1:	01 d0                	add    %edx,%eax
  803fe3:	05 58 01 00 00       	add    $0x158,%eax
  803fe8:	8b 00                	mov    (%eax),%eax
  803fea:	c1 e8 10             	shr    $0x10,%eax
  803fed:	98                   	cwtl   
  803fee:	89 45 c8             	mov    %eax,-0x38(%ebp)
  803ff1:	8b 45 c4             	mov    -0x3c(%ebp),%eax
  803ff4:	29 45 cc             	sub    %eax,-0x34(%ebp)
